GAS LISTING /tmp/ccEJ58Bj.s 			page 1


   1              		.file	"consoleBuffer.cpp"
   2              		.option pic
   3              		.option norelax
   4              		.text
   5              	.Ltext0:
   6              		.align	2
   7              		.globl	_ZN13ConsoleBufferC2Ei
   9              	_ZN13ConsoleBufferC2Ei:
  10              	.LFB71:
  11              		.file 1 "src/consoleBuffer.cpp"
   1:src/consoleBuffer.cpp **** #include "../h/consoleBuffer.hpp"
   2:src/consoleBuffer.cpp **** extern size_t descSize;
   3:src/consoleBuffer.cpp **** 
   4:src/consoleBuffer.cpp **** extern size_t convertSizeInBlocks(size_t size);
   5:src/consoleBuffer.cpp **** 
   6:src/consoleBuffer.cpp **** ConsoleBuffer::ConsoleBuffer(int cap) : cap(cap), head(0), tail(0) {
  12              		.loc 1 6 1
  13              		.cfi_startproc
  14              	.LVL0:
  15 0000 130101FE 		addi	sp,sp,-32
  16              		.cfi_def_cfa_offset 32
  17 0004 233C1100 		sd	ra,24(sp)
  18 0008 23388100 		sd	s0,16(sp)
  19 000c 23349100 		sd	s1,8(sp)
  20 0010 23302101 		sd	s2,0(sp)
  21              		.cfi_offset 1, -8
  22              		.cfi_offset 8, -16
  23              		.cfi_offset 9, -24
  24              		.cfi_offset 18, -32
  25 0014 13040102 		addi	s0,sp,32
  26              		.cfi_def_cfa 8, 0
  27 0018 93040500 		mv	s1,a0
  28 001c 13890500 		mv	s2,a1
  29              	.LBB2:
  30              		.loc 1 6 66 is_stmt 0
  31 0020 2320B500 		sw	a1,0(a0)
  32 0024 23280500 		sw	zero,16(a0)
  33 0028 232A0500 		sw	zero,20(a0)
   7:src/consoleBuffer.cpp ****     buffer = (char *)MemoryAllocator::mem_alloc(CONVERT_SIZE_TO_BLOCKS(sizeof(char) * cap));
  34              		.loc 1 7 5 is_stmt 1
  35              		.loc 1 7 49 is_stmt 0
  36 002c 1385F50F 		addi	a0,a1,255
  37              	.LVL1:
  38              		.loc 1 7 48
  39 0030 13558500 		srli	a0,a0,8
  40 0034 97000000 		call	_ZN15MemoryAllocator9mem_allocEm@plt
  40      E7800000 
  41              	.LVL2:
  42              		.loc 1 7 12
  43 003c 23B4A400 		sd	a0,8(s1)
   8:src/consoleBuffer.cpp **** 
   9:src/consoleBuffer.cpp ****     sem::sem_open(&itemAvailable, 0);
  44              		.loc 1 9 5 is_stmt 1
  45              		.loc 1 9 18 is_stmt 0
  46 0040 93050000 		li	a1,0
  47 0044 13850402 		addi	a0,s1,32
  48 0048 97000000 		call	_ZN3sem8sem_openEPPS_i@plt
GAS LISTING /tmp/ccEJ58Bj.s 			page 2


  48      E7800000 
  49              	.LVL3:
  10:src/consoleBuffer.cpp ****     sem::sem_open(&spaceAvailable, cap);
  50              		.loc 1 10 5 is_stmt 1
  51              		.loc 1 10 18 is_stmt 0
  52 0050 93050900 		mv	a1,s2
  53 0054 13858401 		addi	a0,s1,24
  54 0058 97000000 		call	_ZN3sem8sem_openEPPS_i@plt
  54      E7800000 
  55              	.LVL4:
  11:src/consoleBuffer.cpp ****     sem::sem_open(&mutexHead, 1);
  56              		.loc 1 11 5 is_stmt 1
  57              		.loc 1 11 18 is_stmt 0
  58 0060 93051000 		li	a1,1
  59 0064 13858402 		addi	a0,s1,40
  60 0068 97000000 		call	_ZN3sem8sem_openEPPS_i@plt
  60      E7800000 
  61              	.LVL5:
  12:src/consoleBuffer.cpp ****     sem::sem_open(&mutexTail, 1);
  62              		.loc 1 12 5 is_stmt 1
  63              		.loc 1 12 18 is_stmt 0
  64 0070 93051000 		li	a1,1
  65 0074 13850403 		addi	a0,s1,48
  66 0078 97000000 		call	_ZN3sem8sem_openEPPS_i@plt
  66      E7800000 
  67              	.LVL6:
  68              	.LBE2:
  13:src/consoleBuffer.cpp **** }
  69              		.loc 1 13 1
  70 0080 83308101 		ld	ra,24(sp)
  71              		.cfi_restore 1
  72 0084 03340101 		ld	s0,16(sp)
  73              		.cfi_restore 8
  74              		.cfi_def_cfa 2, 32
  75 0088 83348100 		ld	s1,8(sp)
  76              		.cfi_restore 9
  77              	.LVL7:
  78 008c 03390100 		ld	s2,0(sp)
  79              		.cfi_restore 18
  80 0090 13010102 		addi	sp,sp,32
  81              		.cfi_def_cfa_offset 0
  82 0094 67800000 		jr	ra
  83              		.cfi_endproc
  84              	.LFE71:
  86              		.globl	_ZN13ConsoleBufferC1Ei
  87              		.set	_ZN13ConsoleBufferC1Ei,_ZN13ConsoleBufferC2Ei
  88              		.align	2
  89              		.globl	_ZN13ConsoleBuffer3putEc
  91              	_ZN13ConsoleBuffer3putEc:
  92              	.LFB76:
  14:src/consoleBuffer.cpp **** 
  15:src/consoleBuffer.cpp **** ConsoleBuffer::~ConsoleBuffer() {
  16:src/consoleBuffer.cpp ****     while (getCnt() > 0) {
  17:src/consoleBuffer.cpp ****         char c = buffer[head];
  18:src/consoleBuffer.cpp ****         putc(c);
  19:src/consoleBuffer.cpp ****         head = (head + 1) % cap;
  20:src/consoleBuffer.cpp ****     }
GAS LISTING /tmp/ccEJ58Bj.s 			page 3


  21:src/consoleBuffer.cpp **** 
  22:src/consoleBuffer.cpp ****     MemoryAllocator::mem_free(buffer);
  23:src/consoleBuffer.cpp ****     delete itemAvailable;
  24:src/consoleBuffer.cpp ****     delete spaceAvailable;
  25:src/consoleBuffer.cpp ****     delete mutexTail;
  26:src/consoleBuffer.cpp ****     delete mutexHead;
  27:src/consoleBuffer.cpp **** }
  28:src/consoleBuffer.cpp **** 
  29:src/consoleBuffer.cpp **** void ConsoleBuffer::put(char c) {
  93              		.loc 1 29 33 is_stmt 1
  94              		.cfi_startproc
  95              	.LVL8:
  96 0098 130101FE 		addi	sp,sp,-32
  97              		.cfi_def_cfa_offset 32
  98 009c 233C1100 		sd	ra,24(sp)
  99 00a0 23388100 		sd	s0,16(sp)
 100 00a4 23349100 		sd	s1,8(sp)
 101 00a8 23302101 		sd	s2,0(sp)
 102              		.cfi_offset 1, -8
 103              		.cfi_offset 8, -16
 104              		.cfi_offset 9, -24
 105              		.cfi_offset 18, -32
 106 00ac 13040102 		addi	s0,sp,32
 107              		.cfi_def_cfa 8, 0
 108 00b0 93040500 		mv	s1,a0
 109 00b4 13890500 		mv	s2,a1
  30:src/consoleBuffer.cpp ****     spaceAvailable->wait();
 110              		.loc 1 30 5
 111              		.loc 1 30 25 is_stmt 0
 112 00b8 03358501 		ld	a0,24(a0)
 113              	.LVL9:
 114 00bc 97000000 		call	_ZN3sem4waitEv@plt
 114      E7800000 
 115              	.LVL10:
  31:src/consoleBuffer.cpp ****     mutexTail->wait();
 116              		.loc 1 31 5 is_stmt 1
 117              		.loc 1 31 20 is_stmt 0
 118 00c4 03B50403 		ld	a0,48(s1)
 119 00c8 97000000 		call	_ZN3sem4waitEv@plt
 119      E7800000 
 120              	.LVL11:
  32:src/consoleBuffer.cpp **** 
  33:src/consoleBuffer.cpp ****     buffer[tail] = c;
 121              		.loc 1 33 5 is_stmt 1
 122 00d0 83B78400 		ld	a5,8(s1)
 123              		.loc 1 33 12 is_stmt 0
 124 00d4 03A74401 		lw	a4,20(s1)
 125              		.loc 1 33 16
 126 00d8 B387E700 		add	a5,a5,a4
 127              		.loc 1 33 18
 128 00dc 23802701 		sb	s2,0(a5)
  34:src/consoleBuffer.cpp ****     tail = (tail + 1) % cap;
 129              		.loc 1 34 5 is_stmt 1
 130              		.loc 1 34 13 is_stmt 0
 131 00e0 83A74401 		lw	a5,20(s1)
 132              		.loc 1 34 18
 133 00e4 9B871700 		addiw	a5,a5,1
GAS LISTING /tmp/ccEJ58Bj.s 			page 4


 134              		.loc 1 34 25
 135 00e8 03A70400 		lw	a4,0(s1)
 136              		.loc 1 34 23
 137 00ec BBE7E702 		remw	a5,a5,a4
 138              		.loc 1 34 10
 139 00f0 23AAF400 		sw	a5,20(s1)
  35:src/consoleBuffer.cpp **** 
  36:src/consoleBuffer.cpp ****     mutexTail->signal();
 140              		.loc 1 36 5 is_stmt 1
 141              		.loc 1 36 22 is_stmt 0
 142 00f4 03B50403 		ld	a0,48(s1)
 143 00f8 97000000 		call	_ZN3sem6signalEv@plt
 143      E7800000 
 144              	.LVL12:
  37:src/consoleBuffer.cpp ****     itemAvailable->signal();
 145              		.loc 1 37 5 is_stmt 1
 146              		.loc 1 37 26 is_stmt 0
 147 0100 03B50402 		ld	a0,32(s1)
 148 0104 97000000 		call	_ZN3sem6signalEv@plt
 148      E7800000 
 149              	.LVL13:
  38:src/consoleBuffer.cpp **** }
 150              		.loc 1 38 1
 151 010c 83308101 		ld	ra,24(sp)
 152              		.cfi_restore 1
 153 0110 03340101 		ld	s0,16(sp)
 154              		.cfi_restore 8
 155              		.cfi_def_cfa 2, 32
 156 0114 83348100 		ld	s1,8(sp)
 157              		.cfi_restore 9
 158              	.LVL14:
 159 0118 03390100 		ld	s2,0(sp)
 160              		.cfi_restore 18
 161 011c 13010102 		addi	sp,sp,32
 162              		.cfi_def_cfa_offset 0
 163 0120 67800000 		jr	ra
 164              		.cfi_endproc
 165              	.LFE76:
 167              		.align	2
 168              		.globl	_ZN13ConsoleBuffer3getEv
 170              	_ZN13ConsoleBuffer3getEv:
 171              	.LFB77:
  39:src/consoleBuffer.cpp **** 
  40:src/consoleBuffer.cpp **** int ConsoleBuffer::get() {
 172              		.loc 1 40 26 is_stmt 1
 173              		.cfi_startproc
 174              	.LVL15:
 175 0124 130101FE 		addi	sp,sp,-32
 176              		.cfi_def_cfa_offset 32
 177 0128 233C1100 		sd	ra,24(sp)
 178 012c 23388100 		sd	s0,16(sp)
 179 0130 23349100 		sd	s1,8(sp)
 180 0134 23302101 		sd	s2,0(sp)
 181              		.cfi_offset 1, -8
 182              		.cfi_offset 8, -16
 183              		.cfi_offset 9, -24
 184              		.cfi_offset 18, -32
GAS LISTING /tmp/ccEJ58Bj.s 			page 5


 185 0138 13040102 		addi	s0,sp,32
 186              		.cfi_def_cfa 8, 0
 187 013c 93040500 		mv	s1,a0
  41:src/consoleBuffer.cpp ****     itemAvailable->wait();
 188              		.loc 1 41 5
 189              		.loc 1 41 24 is_stmt 0
 190 0140 03350502 		ld	a0,32(a0)
 191              	.LVL16:
 192 0144 97000000 		call	_ZN3sem4waitEv@plt
 192      E7800000 
 193              	.LVL17:
  42:src/consoleBuffer.cpp ****     mutexHead->wait();
 194              		.loc 1 42 5 is_stmt 1
 195              		.loc 1 42 20 is_stmt 0
 196 014c 03B58402 		ld	a0,40(s1)
 197 0150 97000000 		call	_ZN3sem4waitEv@plt
 197      E7800000 
 198              	.LVL18:
  43:src/consoleBuffer.cpp **** 
  44:src/consoleBuffer.cpp ****     char ret = buffer[head];
 199              		.loc 1 44 5 is_stmt 1
 200              		.loc 1 44 16 is_stmt 0
 201 0158 03B78400 		ld	a4,8(s1)
 202              		.loc 1 44 23
 203 015c 83A70401 		lw	a5,16(s1)
 204              		.loc 1 44 27
 205 0160 3307F700 		add	a4,a4,a5
 206              		.loc 1 44 10
 207 0164 03490700 		lbu	s2,0(a4)
 208              	.LVL19:
  45:src/consoleBuffer.cpp ****     head = (head + 1) % cap;
 209              		.loc 1 45 5 is_stmt 1
 210              		.loc 1 45 18 is_stmt 0
 211 0168 9B871700 		addiw	a5,a5,1
 212              		.loc 1 45 25
 213 016c 03A70400 		lw	a4,0(s1)
 214              		.loc 1 45 23
 215 0170 BBE7E702 		remw	a5,a5,a4
 216              		.loc 1 45 10
 217 0174 23A8F400 		sw	a5,16(s1)
  46:src/consoleBuffer.cpp **** 
  47:src/consoleBuffer.cpp ****     mutexHead->signal();
 218              		.loc 1 47 5 is_stmt 1
 219              		.loc 1 47 22 is_stmt 0
 220 0178 03B58402 		ld	a0,40(s1)
 221 017c 97000000 		call	_ZN3sem6signalEv@plt
 221      E7800000 
 222              	.LVL20:
  48:src/consoleBuffer.cpp ****     spaceAvailable->signal();
 223              		.loc 1 48 5 is_stmt 1
 224              		.loc 1 48 27 is_stmt 0
 225 0184 03B58401 		ld	a0,24(s1)
 226 0188 97000000 		call	_ZN3sem6signalEv@plt
 226      E7800000 
 227              	.LVL21:
  49:src/consoleBuffer.cpp **** 
  50:src/consoleBuffer.cpp ****     return ret;
GAS LISTING /tmp/ccEJ58Bj.s 			page 6


 228              		.loc 1 50 5 is_stmt 1
  51:src/consoleBuffer.cpp **** }
 229              		.loc 1 51 1 is_stmt 0
 230 0190 13050900 		mv	a0,s2
 231 0194 83308101 		ld	ra,24(sp)
 232              		.cfi_restore 1
 233 0198 03340101 		ld	s0,16(sp)
 234              		.cfi_restore 8
 235              		.cfi_def_cfa 2, 32
 236 019c 83348100 		ld	s1,8(sp)
 237              		.cfi_restore 9
 238              	.LVL22:
 239 01a0 03390100 		ld	s2,0(sp)
 240              		.cfi_restore 18
 241              	.LVL23:
 242 01a4 13010102 		addi	sp,sp,32
 243              		.cfi_def_cfa_offset 0
 244 01a8 67800000 		jr	ra
 245              		.cfi_endproc
 246              	.LFE77:
 248              		.align	2
 249              		.globl	_ZN13ConsoleBuffer6getCntEv
 251              	_ZN13ConsoleBuffer6getCntEv:
 252              	.LFB78:
  52:src/consoleBuffer.cpp **** 
  53:src/consoleBuffer.cpp **** int ConsoleBuffer::getCnt() {
 253              		.loc 1 53 29 is_stmt 1
 254              		.cfi_startproc
 255              	.LVL24:
 256 01ac 130101FE 		addi	sp,sp,-32
 257              		.cfi_def_cfa_offset 32
 258 01b0 233C1100 		sd	ra,24(sp)
 259 01b4 23388100 		sd	s0,16(sp)
 260 01b8 23349100 		sd	s1,8(sp)
 261 01bc 23302101 		sd	s2,0(sp)
 262              		.cfi_offset 1, -8
 263              		.cfi_offset 8, -16
 264              		.cfi_offset 9, -24
 265              		.cfi_offset 18, -32
 266 01c0 13040102 		addi	s0,sp,32
 267              		.cfi_def_cfa 8, 0
 268 01c4 93040500 		mv	s1,a0
  54:src/consoleBuffer.cpp ****     mutexHead->wait();
 269              		.loc 1 54 5
 270              		.loc 1 54 20 is_stmt 0
 271 01c8 03358502 		ld	a0,40(a0)
 272              	.LVL25:
 273 01cc 97000000 		call	_ZN3sem4waitEv@plt
 273      E7800000 
 274              	.LVL26:
  55:src/consoleBuffer.cpp ****     mutexTail->wait();
 275              		.loc 1 55 5 is_stmt 1
 276              		.loc 1 55 20 is_stmt 0
 277 01d4 03B50403 		ld	a0,48(s1)
 278 01d8 97000000 		call	_ZN3sem4waitEv@plt
 278      E7800000 
 279              	.LVL27:
GAS LISTING /tmp/ccEJ58Bj.s 			page 7


  56:src/consoleBuffer.cpp ****     int ret;
 280              		.loc 1 56 5 is_stmt 1
  57:src/consoleBuffer.cpp ****     if (tail >= head) {
 281              		.loc 1 57 5
 282              		.loc 1 57 9 is_stmt 0
 283 01e0 83A74401 		lw	a5,20(s1)
 284              		.loc 1 57 17
 285 01e4 03A90401 		lw	s2,16(s1)
 286              		.loc 1 57 5
 287 01e8 63CE2703 		blt	a5,s2,.L8
  58:src/consoleBuffer.cpp ****         ret = tail - head;
 288              		.loc 1 58 9 is_stmt 1
 289              		.loc 1 58 13 is_stmt 0
 290 01ec 3B892741 		subw	s2,a5,s2
 291              	.LVL28:
 292              	.L9:
  59:src/consoleBuffer.cpp ****     } else {
  60:src/consoleBuffer.cpp ****         ret = cap - head + tail;
  61:src/consoleBuffer.cpp ****     }
  62:src/consoleBuffer.cpp **** 
  63:src/consoleBuffer.cpp ****     mutexTail->signal();
 293              		.loc 1 63 5 is_stmt 1
 294              		.loc 1 63 22 is_stmt 0
 295 01f0 03B50403 		ld	a0,48(s1)
 296 01f4 97000000 		call	_ZN3sem6signalEv@plt
 296      E7800000 
 297              	.LVL29:
  64:src/consoleBuffer.cpp ****     mutexHead->signal();
 298              		.loc 1 64 5 is_stmt 1
 299              		.loc 1 64 22 is_stmt 0
 300 01fc 03B58402 		ld	a0,40(s1)
 301 0200 97000000 		call	_ZN3sem6signalEv@plt
 301      E7800000 
 302              	.LVL30:
  65:src/consoleBuffer.cpp **** 
  66:src/consoleBuffer.cpp ****     return ret;
 303              		.loc 1 66 5 is_stmt 1
  67:src/consoleBuffer.cpp **** }
 304              		.loc 1 67 1 is_stmt 0
 305 0208 13050900 		mv	a0,s2
 306 020c 83308101 		ld	ra,24(sp)
 307              		.cfi_remember_state
 308              		.cfi_restore 1
 309 0210 03340101 		ld	s0,16(sp)
 310              		.cfi_restore 8
 311              		.cfi_def_cfa 2, 32
 312 0214 83348100 		ld	s1,8(sp)
 313              		.cfi_restore 9
 314              	.LVL31:
 315 0218 03390100 		ld	s2,0(sp)
 316              		.cfi_restore 18
 317              	.LVL32:
 318 021c 13010102 		addi	sp,sp,32
 319              		.cfi_def_cfa_offset 0
 320 0220 67800000 		jr	ra
 321              	.LVL33:
 322              	.L8:
GAS LISTING /tmp/ccEJ58Bj.s 			page 8


 323              		.cfi_restore_state
  60:src/consoleBuffer.cpp ****     }
 324              		.loc 1 60 9 is_stmt 1
  60:src/consoleBuffer.cpp ****     }
 325              		.loc 1 60 15 is_stmt 0
 326 0224 03A70400 		lw	a4,0(s1)
  60:src/consoleBuffer.cpp ****     }
 327              		.loc 1 60 19
 328 0228 3B092741 		subw	s2,a4,s2
  60:src/consoleBuffer.cpp ****     }
 329              		.loc 1 60 13
 330 022c 3B09F900 		addw	s2,s2,a5
 331 0230 6FF01FFC 		j	.L9
 332              		.cfi_endproc
 333              	.LFE78:
 335              		.align	2
 336              		.globl	_ZN13ConsoleBufferD2Ev
 338              	_ZN13ConsoleBufferD2Ev:
 339              	.LFB74:
  15:src/consoleBuffer.cpp ****     while (getCnt() > 0) {
 340              		.loc 1 15 1 is_stmt 1
 341              		.cfi_startproc
 342              		.cfi_personality 0x9b,DW.ref.__gxx_personality_v0
 343              		.cfi_lsda 0x1b,.LLSDA74
 344              	.LVL34:
 345 0234 130101FE 		addi	sp,sp,-32
 346              		.cfi_def_cfa_offset 32
 347 0238 233C1100 		sd	ra,24(sp)
 348 023c 23388100 		sd	s0,16(sp)
 349 0240 23349100 		sd	s1,8(sp)
 350 0244 23302101 		sd	s2,0(sp)
 351              		.cfi_offset 1, -8
 352              		.cfi_offset 8, -16
 353              		.cfi_offset 9, -24
 354              		.cfi_offset 18, -32
 355 0248 13040102 		addi	s0,sp,32
 356              		.cfi_def_cfa 8, 0
 357 024c 93040500 		mv	s1,a0
 358              	.LVL35:
 359              	.L13:
 360              	.LBB3:
  16:src/consoleBuffer.cpp ****         char c = buffer[head];
 361              		.loc 1 16 5
  16:src/consoleBuffer.cpp ****         char c = buffer[head];
 362              		.loc 1 16 21
  16:src/consoleBuffer.cpp ****         char c = buffer[head];
 363              		.loc 1 16 18 is_stmt 0
 364 0250 13850400 		mv	a0,s1
 365 0254 97000000 		call	_ZN13ConsoleBuffer6getCntEv
 365      E7800000 
 366              	.LVL36:
  16:src/consoleBuffer.cpp ****         char c = buffer[head];
 367              		.loc 1 16 21
 368 025c 635AA002 		blez	a0,.L12
 369              	.LBB4:
  17:src/consoleBuffer.cpp ****         putc(c);
 370              		.loc 1 17 9 is_stmt 1
GAS LISTING /tmp/ccEJ58Bj.s 			page 9


  17:src/consoleBuffer.cpp ****         putc(c);
 371              		.loc 1 17 18 is_stmt 0
 372 0260 83B78400 		ld	a5,8(s1)
  17:src/consoleBuffer.cpp ****         putc(c);
 373              		.loc 1 17 25
 374 0264 03A70401 		lw	a4,16(s1)
  17:src/consoleBuffer.cpp ****         putc(c);
 375              		.loc 1 17 29
 376 0268 B387E700 		add	a5,a5,a4
 377              	.LVL37:
  18:src/consoleBuffer.cpp ****         head = (head + 1) % cap;
 378              		.loc 1 18 9 is_stmt 1
  18:src/consoleBuffer.cpp ****         head = (head + 1) % cap;
 379              		.loc 1 18 13 is_stmt 0
 380 026c 03C50700 		lbu	a0,0(a5)
 381 0270 97000000 		call	_Z4putcc@plt
 381      E7800000 
 382              	.LVL38:
  19:src/consoleBuffer.cpp ****     }
 383              		.loc 1 19 9 is_stmt 1
  19:src/consoleBuffer.cpp ****     }
 384              		.loc 1 19 17 is_stmt 0
 385 0278 83A70401 		lw	a5,16(s1)
  19:src/consoleBuffer.cpp ****     }
 386              		.loc 1 19 22
 387 027c 9B871700 		addiw	a5,a5,1
  19:src/consoleBuffer.cpp ****     }
 388              		.loc 1 19 29
 389 0280 03A70400 		lw	a4,0(s1)
  19:src/consoleBuffer.cpp ****     }
 390              		.loc 1 19 27
 391 0284 BBE7E702 		remw	a5,a5,a4
  19:src/consoleBuffer.cpp ****     }
 392              		.loc 1 19 14
 393 0288 23A8F400 		sw	a5,16(s1)
 394              	.LBE4:
  16:src/consoleBuffer.cpp ****         char c = buffer[head];
 395              		.loc 1 16 5
 396 028c 6FF05FFC 		j	.L13
 397              	.L12:
  22:src/consoleBuffer.cpp ****     delete itemAvailable;
 398              		.loc 1 22 5 is_stmt 1
  22:src/consoleBuffer.cpp ****     delete itemAvailable;
 399              		.loc 1 22 30 is_stmt 0
 400 0290 03B58400 		ld	a0,8(s1)
 401 0294 97000000 		call	_ZN15MemoryAllocator8mem_freeEPv@plt
 401      E7800000 
 402              	.LVL39:
  23:src/consoleBuffer.cpp ****     delete spaceAvailable;
 403              		.loc 1 23 5 is_stmt 1
  23:src/consoleBuffer.cpp ****     delete spaceAvailable;
 404              		.loc 1 23 12 is_stmt 0
 405 029c 03B90402 		ld	s2,32(s1)
  23:src/consoleBuffer.cpp ****     delete spaceAvailable;
 406              		.loc 1 23 25
 407 02a0 630E0900 		beqz	s2,.L14
  23:src/consoleBuffer.cpp ****     delete spaceAvailable;
GAS LISTING /tmp/ccEJ58Bj.s 			page 10


 408              		.loc 1 23 12 discriminator 1
 409 02a4 13050900 		mv	a0,s2
 410 02a8 97000000 		call	_ZN3semD1Ev@plt
 410      E7800000 
 411              	.LVL40:
 412 02b0 13050900 		mv	a0,s2
 413 02b4 97000000 		call	_ZN3semdlEPv@plt
 413      E7800000 
 414              	.LVL41:
 415              	.L14:
  24:src/consoleBuffer.cpp ****     delete mutexTail;
 416              		.loc 1 24 5 is_stmt 1
  24:src/consoleBuffer.cpp ****     delete mutexTail;
 417              		.loc 1 24 12 is_stmt 0
 418 02bc 03B98401 		ld	s2,24(s1)
  24:src/consoleBuffer.cpp ****     delete mutexTail;
 419              		.loc 1 24 26
 420 02c0 630E0900 		beqz	s2,.L15
  24:src/consoleBuffer.cpp ****     delete mutexTail;
 421              		.loc 1 24 12 discriminator 1
 422 02c4 13050900 		mv	a0,s2
 423 02c8 97000000 		call	_ZN3semD1Ev@plt
 423      E7800000 
 424              	.LVL42:
 425 02d0 13050900 		mv	a0,s2
 426 02d4 97000000 		call	_ZN3semdlEPv@plt
 426      E7800000 
 427              	.LVL43:
 428              	.L15:
  25:src/consoleBuffer.cpp ****     delete mutexHead;
 429              		.loc 1 25 5 is_stmt 1
  25:src/consoleBuffer.cpp ****     delete mutexHead;
 430              		.loc 1 25 12 is_stmt 0
 431 02dc 03B90403 		ld	s2,48(s1)
  25:src/consoleBuffer.cpp ****     delete mutexHead;
 432              		.loc 1 25 21
 433 02e0 630E0900 		beqz	s2,.L16
  25:src/consoleBuffer.cpp ****     delete mutexHead;
 434              		.loc 1 25 12 discriminator 1
 435 02e4 13050900 		mv	a0,s2
 436 02e8 97000000 		call	_ZN3semD1Ev@plt
 436      E7800000 
 437              	.LVL44:
 438 02f0 13050900 		mv	a0,s2
 439 02f4 97000000 		call	_ZN3semdlEPv@plt
 439      E7800000 
 440              	.LVL45:
 441              	.L16:
  26:src/consoleBuffer.cpp **** }
 442              		.loc 1 26 5 is_stmt 1
  26:src/consoleBuffer.cpp **** }
 443              		.loc 1 26 12 is_stmt 0
 444 02fc 83B48402 		ld	s1,40(s1)
 445              	.LVL46:
  26:src/consoleBuffer.cpp **** }
 446              		.loc 1 26 21
 447 0300 638E0400 		beqz	s1,.L11
GAS LISTING /tmp/ccEJ58Bj.s 			page 11


  26:src/consoleBuffer.cpp **** }
 448              		.loc 1 26 12 discriminator 1
 449 0304 13850400 		mv	a0,s1
 450 0308 97000000 		call	_ZN3semD1Ev@plt
 450      E7800000 
 451              	.LVL47:
 452 0310 13850400 		mv	a0,s1
 453 0314 97000000 		call	_ZN3semdlEPv@plt
 453      E7800000 
 454              	.LVL48:
 455              	.L11:
 456              	.LBE3:
  27:src/consoleBuffer.cpp **** 
 457              		.loc 1 27 1
 458 031c 83308101 		ld	ra,24(sp)
 459              		.cfi_restore 1
 460 0320 03340101 		ld	s0,16(sp)
 461              		.cfi_restore 8
 462              		.cfi_def_cfa 2, 32
 463 0324 83348100 		ld	s1,8(sp)
 464              		.cfi_restore 9
 465 0328 03390100 		ld	s2,0(sp)
 466              		.cfi_restore 18
 467 032c 13010102 		addi	sp,sp,32
 468              		.cfi_def_cfa_offset 0
 469 0330 67800000 		jr	ra
 470              		.cfi_endproc
 471              	.LFE74:
 472              		.globl	__gxx_personality_v0
 473              		.section	.gcc_except_table,"a",@progbits
 474              	.LLSDA74:
 475 0000 FF       		.byte	0xff
 476 0001 FF       		.byte	0xff
 477 0002 03       		.byte	0x3
 478 0003 00       		.byte	0
 479              		.text
 481              		.globl	_ZN13ConsoleBufferD1Ev
 482              		.set	_ZN13ConsoleBufferD1Ev,_ZN13ConsoleBufferD2Ev
 483              		.align	2
 484              		.globl	_ZN13ConsoleBuffer6isFullEv
 486              	_ZN13ConsoleBuffer6isFullEv:
 487              	.LFB79:
  68:src/consoleBuffer.cpp **** 
  69:src/consoleBuffer.cpp **** bool ConsoleBuffer::isFull(){
 488              		.loc 1 69 29 is_stmt 1
 489              		.cfi_startproc
 490              	.LVL49:
 491 0334 130101FE 		addi	sp,sp,-32
 492              		.cfi_def_cfa_offset 32
 493 0338 233C1100 		sd	ra,24(sp)
 494 033c 23388100 		sd	s0,16(sp)
 495 0340 23349100 		sd	s1,8(sp)
 496 0344 23302101 		sd	s2,0(sp)
 497              		.cfi_offset 1, -8
 498              		.cfi_offset 8, -16
 499              		.cfi_offset 9, -24
 500              		.cfi_offset 18, -32
GAS LISTING /tmp/ccEJ58Bj.s 			page 12


 501 0348 13040102 		addi	s0,sp,32
 502              		.cfi_def_cfa 8, 0
 503 034c 93040500 		mv	s1,a0
  70:src/consoleBuffer.cpp ****     mutexHead->wait();
 504              		.loc 1 70 5
 505              		.loc 1 70 20 is_stmt 0
 506 0350 03358502 		ld	a0,40(a0)
 507              	.LVL50:
 508 0354 97000000 		call	_ZN3sem4waitEv@plt
 508      E7800000 
 509              	.LVL51:
  71:src/consoleBuffer.cpp ****     mutexTail->wait();
 510              		.loc 1 71 5 is_stmt 1
 511              		.loc 1 71 20 is_stmt 0
 512 035c 03B50403 		ld	a0,48(s1)
 513 0360 97000000 		call	_ZN3sem4waitEv@plt
 513      E7800000 
 514              	.LVL52:
  72:src/consoleBuffer.cpp ****     int cnt;
 515              		.loc 1 72 5 is_stmt 1
  73:src/consoleBuffer.cpp ****     if (tail >= head) {
 516              		.loc 1 73 5
 517              		.loc 1 73 9 is_stmt 0
 518 0368 03A54401 		lw	a0,20(s1)
 519              		.loc 1 73 17
 520 036c 03A90401 		lw	s2,16(s1)
 521              		.loc 1 73 5
 522 0370 63422505 		blt	a0,s2,.L20
  74:src/consoleBuffer.cpp ****         cnt = tail - head;
 523              		.loc 1 74 9 is_stmt 1
 524              		.loc 1 74 13 is_stmt 0
 525 0374 3B092541 		subw	s2,a0,s2
 526              	.LVL53:
 527              	.L21:
  75:src/consoleBuffer.cpp ****     } else {
  76:src/consoleBuffer.cpp ****         cnt = cap - head + tail;
  77:src/consoleBuffer.cpp ****     }
  78:src/consoleBuffer.cpp **** 
  79:src/consoleBuffer.cpp ****     mutexTail->signal();
 528              		.loc 1 79 5 is_stmt 1
 529              		.loc 1 79 22 is_stmt 0
 530 0378 03B50403 		ld	a0,48(s1)
 531 037c 97000000 		call	_ZN3sem6signalEv@plt
 531      E7800000 
 532              	.LVL54:
  80:src/consoleBuffer.cpp ****     mutexHead->signal();
 533              		.loc 1 80 5 is_stmt 1
 534              		.loc 1 80 22 is_stmt 0
 535 0384 03B58402 		ld	a0,40(s1)
 536 0388 97000000 		call	_ZN3sem6signalEv@plt
 536      E7800000 
 537              	.LVL55:
  81:src/consoleBuffer.cpp **** 
  82:src/consoleBuffer.cpp ****     return cnt == this->cap;
 538              		.loc 1 82 5 is_stmt 1
 539              		.loc 1 82 25 is_stmt 0
 540 0390 03A50400 		lw	a0,0(s1)
GAS LISTING /tmp/ccEJ58Bj.s 			page 13


 541 0394 33052541 		sub	a0,a0,s2
  83:src/consoleBuffer.cpp **** }
 542              		.loc 1 83 1
 543 0398 13351500 		seqz	a0,a0
 544 039c 83308101 		ld	ra,24(sp)
 545              		.cfi_remember_state
 546              		.cfi_restore 1
 547 03a0 03340101 		ld	s0,16(sp)
 548              		.cfi_restore 8
 549              		.cfi_def_cfa 2, 32
 550 03a4 83348100 		ld	s1,8(sp)
 551              		.cfi_restore 9
 552              	.LVL56:
 553 03a8 03390100 		ld	s2,0(sp)
 554              		.cfi_restore 18
 555              	.LVL57:
 556 03ac 13010102 		addi	sp,sp,32
 557              		.cfi_def_cfa_offset 0
 558 03b0 67800000 		jr	ra
 559              	.LVL58:
 560              	.L20:
 561              		.cfi_restore_state
  76:src/consoleBuffer.cpp ****     }
 562              		.loc 1 76 9 is_stmt 1
  76:src/consoleBuffer.cpp ****     }
 563              		.loc 1 76 15 is_stmt 0
 564 03b4 83A70400 		lw	a5,0(s1)
  76:src/consoleBuffer.cpp ****     }
 565              		.loc 1 76 19
 566 03b8 3B892741 		subw	s2,a5,s2
  76:src/consoleBuffer.cpp ****     }
 567              		.loc 1 76 13
 568 03bc 3B09A900 		addw	s2,s2,a0
 569 03c0 6FF09FFB 		j	.L21
 570              		.cfi_endproc
 571              	.LFE79:
 573              		.align	2
 574              		.globl	_ZN13ConsoleBuffernwEm
 576              	_ZN13ConsoleBuffernwEm:
 577              	.LFB80:
  84:src/consoleBuffer.cpp **** 
  85:src/consoleBuffer.cpp **** 
  86:src/consoleBuffer.cpp **** void *ConsoleBuffer::operator new(size_t size) {
 578              		.loc 1 86 48 is_stmt 1
 579              		.cfi_startproc
 580              	.LVL59:
 581 03c4 130101FF 		addi	sp,sp,-16
 582              		.cfi_def_cfa_offset 16
 583 03c8 23341100 		sd	ra,8(sp)
 584 03cc 23308100 		sd	s0,0(sp)
 585              		.cfi_offset 1, -8
 586              		.cfi_offset 8, -16
 587 03d0 13040101 		addi	s0,sp,16
 588              		.cfi_def_cfa 8, 0
  87:src/consoleBuffer.cpp ****     return MemoryAllocator::mem_alloc(CONVERT_SIZE_TO_BLOCKS(size));
 589              		.loc 1 87 5
 590              		.loc 1 87 39 is_stmt 0
GAS LISTING /tmp/ccEJ58Bj.s 			page 14


 591 03d4 1305F50F 		addi	a0,a0,255
 592              	.LVL60:
 593              		.loc 1 87 38
 594 03d8 13558500 		srli	a0,a0,8
 595              	.LVL61:
 596 03dc 97000000 		call	_ZN15MemoryAllocator9mem_allocEm@plt
 596      E7800000 
 597              	.LVL62:
  88:src/consoleBuffer.cpp **** }
 598              		.loc 1 88 1
 599 03e4 83308100 		ld	ra,8(sp)
 600              		.cfi_restore 1
 601 03e8 03340100 		ld	s0,0(sp)
 602              		.cfi_restore 8
 603              		.cfi_def_cfa 2, 16
 604 03ec 13010101 		addi	sp,sp,16
 605              		.cfi_def_cfa_offset 0
 606 03f0 67800000 		jr	ra
 607              		.cfi_endproc
 608              	.LFE80:
 610              		.align	2
 611              		.globl	_ZN13ConsoleBufferdlEPv
 613              	_ZN13ConsoleBufferdlEPv:
 614              	.LFB81:
  89:src/consoleBuffer.cpp **** void ConsoleBuffer::operator delete(void *ptr) {
 615              		.loc 1 89 48 is_stmt 1
 616              		.cfi_startproc
 617              	.LVL63:
 618 03f4 130101FF 		addi	sp,sp,-16
 619              		.cfi_def_cfa_offset 16
 620 03f8 23341100 		sd	ra,8(sp)
 621 03fc 23308100 		sd	s0,0(sp)
 622              		.cfi_offset 1, -8
 623              		.cfi_offset 8, -16
 624 0400 13040101 		addi	s0,sp,16
 625              		.cfi_def_cfa 8, 0
  90:src/consoleBuffer.cpp ****     MemoryAllocator::mem_free(ptr);
 626              		.loc 1 90 5
 627              		.loc 1 90 30 is_stmt 0
 628 0404 97000000 		call	_ZN15MemoryAllocator8mem_freeEPv@plt
 628      E7800000 
 629              	.LVL64:
  91:src/consoleBuffer.cpp **** }
 630              		.loc 1 91 1
 631 040c 83308100 		ld	ra,8(sp)
 632              		.cfi_restore 1
 633 0410 03340100 		ld	s0,0(sp)
 634              		.cfi_restore 8
 635              		.cfi_def_cfa 2, 16
 636 0414 13010101 		addi	sp,sp,16
 637              		.cfi_def_cfa_offset 0
 638 0418 67800000 		jr	ra
 639              		.cfi_endproc
 640              	.LFE81:
 642              		.align	2
 643              		.globl	_ZN13ConsoleBuffernaEm
 645              	_ZN13ConsoleBuffernaEm:
GAS LISTING /tmp/ccEJ58Bj.s 			page 15


 646              	.LFB82:
  92:src/consoleBuffer.cpp **** void *ConsoleBuffer::operator new[](size_t size) {
 647              		.loc 1 92 50 is_stmt 1
 648              		.cfi_startproc
 649              	.LVL65:
 650 041c 130101FF 		addi	sp,sp,-16
 651              		.cfi_def_cfa_offset 16
 652 0420 23341100 		sd	ra,8(sp)
 653 0424 23308100 		sd	s0,0(sp)
 654              		.cfi_offset 1, -8
 655              		.cfi_offset 8, -16
 656 0428 13040101 		addi	s0,sp,16
 657              		.cfi_def_cfa 8, 0
  93:src/consoleBuffer.cpp ****     return MemoryAllocator::mem_alloc(CONVERT_SIZE_TO_BLOCKS(size));
 658              		.loc 1 93 5
 659              		.loc 1 93 39 is_stmt 0
 660 042c 1305F50F 		addi	a0,a0,255
 661              	.LVL66:
 662              		.loc 1 93 38
 663 0430 13558500 		srli	a0,a0,8
 664              	.LVL67:
 665 0434 97000000 		call	_ZN15MemoryAllocator9mem_allocEm@plt
 665      E7800000 
 666              	.LVL68:
  94:src/consoleBuffer.cpp **** }
 667              		.loc 1 94 1
 668 043c 83308100 		ld	ra,8(sp)
 669              		.cfi_restore 1
 670 0440 03340100 		ld	s0,0(sp)
 671              		.cfi_restore 8
 672              		.cfi_def_cfa 2, 16
 673 0444 13010101 		addi	sp,sp,16
 674              		.cfi_def_cfa_offset 0
 675 0448 67800000 		jr	ra
 676              		.cfi_endproc
 677              	.LFE82:
 679              		.align	2
 680              		.globl	_ZN13ConsoleBufferdaEPv
 682              	_ZN13ConsoleBufferdaEPv:
 683              	.LFB83:
  95:src/consoleBuffer.cpp **** void ConsoleBuffer::operator delete[](void *ptr) {
 684              		.loc 1 95 50 is_stmt 1
 685              		.cfi_startproc
 686              	.LVL69:
 687 044c 130101FF 		addi	sp,sp,-16
 688              		.cfi_def_cfa_offset 16
 689 0450 23341100 		sd	ra,8(sp)
 690 0454 23308100 		sd	s0,0(sp)
 691              		.cfi_offset 1, -8
 692              		.cfi_offset 8, -16
 693 0458 13040101 		addi	s0,sp,16
 694              		.cfi_def_cfa 8, 0
  96:src/consoleBuffer.cpp ****     MemoryAllocator::mem_free(ptr);
 695              		.loc 1 96 5
 696              		.loc 1 96 30 is_stmt 0
 697 045c 97000000 		call	_ZN15MemoryAllocator8mem_freeEPv@plt
 697      E7800000 
GAS LISTING /tmp/ccEJ58Bj.s 			page 16


 698              	.LVL70:
  97:src/consoleBuffer.cpp **** }...
 699              		.loc 1 97 1
 700 0464 83308100 		ld	ra,8(sp)
 701              		.cfi_restore 1
 702 0468 03340100 		ld	s0,0(sp)
 703              		.cfi_restore 8
 704              		.cfi_def_cfa 2, 16
 705 046c 13010101 		addi	sp,sp,16
 706              		.cfi_def_cfa_offset 0
 707 0470 67800000 		jr	ra
 708              		.cfi_endproc
 709              	.LFE83:
 711              	.Letext0:
 712              		.file 2 "src/../h/../h/../lib/hw.h"
 713              		.file 3 "src/../h/../h/tcb.hpp"
 714              		.file 4 "src/../h/../h/../h/memoryAllocator.hpp"
 715              		.file 5 "src/../h/../h/../h/../h/threadList.hpp"
 716              		.file 6 "src/../h/../h/../h/sem.hpp"
 717              		.file 7 "src/../h/../h/sleepingThreadList.hpp"
 718              		.file 8 "src/../h/../h/syscall_c.hpp"
 719              		.file 9 "src/../h/consoleBuffer.hpp"
 4709              		.align	3
 4712              	DW.ref.__gxx_personality_v0:
 4713 0000 00000000 		.dword	__gxx_personality_v0
 4713      00000000 
 4714              		.ident	"GCC: (Ubuntu 9.4.0-1ubuntu1~20.04) 9.4.0"
 4715              		.section	.note.GNU-stack,"",@progbits
GAS LISTING /tmp/ccEJ58Bj.s 			page 17


DEFINED SYMBOLS
                            *ABS*:0000000000000000 consoleBuffer.cpp
     /tmp/ccEJ58Bj.s:9      .text:0000000000000000 _ZN13ConsoleBufferC2Ei
     /tmp/ccEJ58Bj.s:13     .text:0000000000000000 .L0 
     /tmp/ccEJ58Bj.s:15     .text:0000000000000000 .L0 
     /tmp/ccEJ58Bj.s:16     .text:0000000000000004 .L0 
     /tmp/ccEJ58Bj.s:21     .text:0000000000000014 .L0 
     /tmp/ccEJ58Bj.s:22     .text:0000000000000014 .L0 
     /tmp/ccEJ58Bj.s:23     .text:0000000000000014 .L0 
     /tmp/ccEJ58Bj.s:24     .text:0000000000000014 .L0 
     /tmp/ccEJ58Bj.s:26     .text:0000000000000018 .L0 
     /tmp/ccEJ58Bj.s:31     .text:0000000000000020 .L0 
     /tmp/ccEJ58Bj.s:35     .text:000000000000002c .L0 
     /tmp/ccEJ58Bj.s:36     .text:000000000000002c .L0 
     /tmp/ccEJ58Bj.s:39     .text:0000000000000030 .L0 
     /tmp/ccEJ58Bj.s:43     .text:000000000000003c .L0 
     /tmp/ccEJ58Bj.s:45     .text:0000000000000040 .L0 
     /tmp/ccEJ58Bj.s:46     .text:0000000000000040 .L0 
     /tmp/ccEJ58Bj.s:51     .text:0000000000000050 .L0 
     /tmp/ccEJ58Bj.s:52     .text:0000000000000050 .L0 
     /tmp/ccEJ58Bj.s:57     .text:0000000000000060 .L0 
     /tmp/ccEJ58Bj.s:58     .text:0000000000000060 .L0 
     /tmp/ccEJ58Bj.s:63     .text:0000000000000070 .L0 
     /tmp/ccEJ58Bj.s:64     .text:0000000000000070 .L0 
     /tmp/ccEJ58Bj.s:70     .text:0000000000000080 .L0 
     /tmp/ccEJ58Bj.s:71     .text:0000000000000084 .L0 
     /tmp/ccEJ58Bj.s:73     .text:0000000000000088 .L0 
     /tmp/ccEJ58Bj.s:74     .text:0000000000000088 .L0 
     /tmp/ccEJ58Bj.s:76     .text:000000000000008c .L0 
     /tmp/ccEJ58Bj.s:79     .text:0000000000000090 .L0 
     /tmp/ccEJ58Bj.s:81     .text:0000000000000094 .L0 
     /tmp/ccEJ58Bj.s:83     .text:0000000000000098 .L0 
     /tmp/ccEJ58Bj.s:9      .text:0000000000000000 _ZN13ConsoleBufferC1Ei
     /tmp/ccEJ58Bj.s:91     .text:0000000000000098 _ZN13ConsoleBuffer3putEc
     /tmp/ccEJ58Bj.s:94     .text:0000000000000098 .L0 
     /tmp/ccEJ58Bj.s:96     .text:0000000000000098 .L0 
     /tmp/ccEJ58Bj.s:97     .text:000000000000009c .L0 
     /tmp/ccEJ58Bj.s:102    .text:00000000000000ac .L0 
     /tmp/ccEJ58Bj.s:103    .text:00000000000000ac .L0 
     /tmp/ccEJ58Bj.s:104    .text:00000000000000ac .L0 
     /tmp/ccEJ58Bj.s:105    .text:00000000000000ac .L0 
     /tmp/ccEJ58Bj.s:107    .text:00000000000000b0 .L0 
     /tmp/ccEJ58Bj.s:111    .text:00000000000000b8 .L0 
     /tmp/ccEJ58Bj.s:112    .text:00000000000000b8 .L0 
     /tmp/ccEJ58Bj.s:117    .text:00000000000000c4 .L0 
     /tmp/ccEJ58Bj.s:118    .text:00000000000000c4 .L0 
     /tmp/ccEJ58Bj.s:122    .text:00000000000000d0 .L0 
     /tmp/ccEJ58Bj.s:124    .text:00000000000000d4 .L0 
     /tmp/ccEJ58Bj.s:126    .text:00000000000000d8 .L0 
     /tmp/ccEJ58Bj.s:128    .text:00000000000000dc .L0 
     /tmp/ccEJ58Bj.s:130    .text:00000000000000e0 .L0 
     /tmp/ccEJ58Bj.s:131    .text:00000000000000e0 .L0 
     /tmp/ccEJ58Bj.s:133    .text:00000000000000e4 .L0 
     /tmp/ccEJ58Bj.s:135    .text:00000000000000e8 .L0 
     /tmp/ccEJ58Bj.s:137    .text:00000000000000ec .L0 
     /tmp/ccEJ58Bj.s:139    .text:00000000000000f0 .L0 
     /tmp/ccEJ58Bj.s:141    .text:00000000000000f4 .L0 
GAS LISTING /tmp/ccEJ58Bj.s 			page 18


     /tmp/ccEJ58Bj.s:142    .text:00000000000000f4 .L0 
     /tmp/ccEJ58Bj.s:146    .text:0000000000000100 .L0 
     /tmp/ccEJ58Bj.s:147    .text:0000000000000100 .L0 
     /tmp/ccEJ58Bj.s:151    .text:000000000000010c .L0 
     /tmp/ccEJ58Bj.s:152    .text:0000000000000110 .L0 
     /tmp/ccEJ58Bj.s:154    .text:0000000000000114 .L0 
     /tmp/ccEJ58Bj.s:155    .text:0000000000000114 .L0 
     /tmp/ccEJ58Bj.s:157    .text:0000000000000118 .L0 
     /tmp/ccEJ58Bj.s:160    .text:000000000000011c .L0 
     /tmp/ccEJ58Bj.s:162    .text:0000000000000120 .L0 
     /tmp/ccEJ58Bj.s:164    .text:0000000000000124 .L0 
     /tmp/ccEJ58Bj.s:170    .text:0000000000000124 _ZN13ConsoleBuffer3getEv
     /tmp/ccEJ58Bj.s:173    .text:0000000000000124 .L0 
     /tmp/ccEJ58Bj.s:175    .text:0000000000000124 .L0 
     /tmp/ccEJ58Bj.s:176    .text:0000000000000128 .L0 
     /tmp/ccEJ58Bj.s:181    .text:0000000000000138 .L0 
     /tmp/ccEJ58Bj.s:182    .text:0000000000000138 .L0 
     /tmp/ccEJ58Bj.s:183    .text:0000000000000138 .L0 
     /tmp/ccEJ58Bj.s:184    .text:0000000000000138 .L0 
     /tmp/ccEJ58Bj.s:186    .text:000000000000013c .L0 
     /tmp/ccEJ58Bj.s:189    .text:0000000000000140 .L0 
     /tmp/ccEJ58Bj.s:190    .text:0000000000000140 .L0 
     /tmp/ccEJ58Bj.s:195    .text:000000000000014c .L0 
     /tmp/ccEJ58Bj.s:196    .text:000000000000014c .L0 
     /tmp/ccEJ58Bj.s:200    .text:0000000000000158 .L0 
     /tmp/ccEJ58Bj.s:201    .text:0000000000000158 .L0 
     /tmp/ccEJ58Bj.s:203    .text:000000000000015c .L0 
     /tmp/ccEJ58Bj.s:205    .text:0000000000000160 .L0 
     /tmp/ccEJ58Bj.s:207    .text:0000000000000164 .L0 
     /tmp/ccEJ58Bj.s:210    .text:0000000000000168 .L0 
     /tmp/ccEJ58Bj.s:211    .text:0000000000000168 .L0 
     /tmp/ccEJ58Bj.s:213    .text:000000000000016c .L0 
     /tmp/ccEJ58Bj.s:215    .text:0000000000000170 .L0 
     /tmp/ccEJ58Bj.s:217    .text:0000000000000174 .L0 
     /tmp/ccEJ58Bj.s:219    .text:0000000000000178 .L0 
     /tmp/ccEJ58Bj.s:220    .text:0000000000000178 .L0 
     /tmp/ccEJ58Bj.s:224    .text:0000000000000184 .L0 
     /tmp/ccEJ58Bj.s:225    .text:0000000000000184 .L0 
     /tmp/ccEJ58Bj.s:229    .text:0000000000000190 .L0 
     /tmp/ccEJ58Bj.s:230    .text:0000000000000190 .L0 
     /tmp/ccEJ58Bj.s:232    .text:0000000000000198 .L0 
     /tmp/ccEJ58Bj.s:234    .text:000000000000019c .L0 
     /tmp/ccEJ58Bj.s:235    .text:000000000000019c .L0 
     /tmp/ccEJ58Bj.s:237    .text:00000000000001a0 .L0 
     /tmp/ccEJ58Bj.s:240    .text:00000000000001a4 .L0 
     /tmp/ccEJ58Bj.s:243    .text:00000000000001a8 .L0 
     /tmp/ccEJ58Bj.s:245    .text:00000000000001ac .L0 
     /tmp/ccEJ58Bj.s:251    .text:00000000000001ac _ZN13ConsoleBuffer6getCntEv
     /tmp/ccEJ58Bj.s:254    .text:00000000000001ac .L0 
     /tmp/ccEJ58Bj.s:256    .text:00000000000001ac .L0 
     /tmp/ccEJ58Bj.s:257    .text:00000000000001b0 .L0 
     /tmp/ccEJ58Bj.s:262    .text:00000000000001c0 .L0 
     /tmp/ccEJ58Bj.s:263    .text:00000000000001c0 .L0 
     /tmp/ccEJ58Bj.s:264    .text:00000000000001c0 .L0 
     /tmp/ccEJ58Bj.s:265    .text:00000000000001c0 .L0 
     /tmp/ccEJ58Bj.s:267    .text:00000000000001c4 .L0 
     /tmp/ccEJ58Bj.s:270    .text:00000000000001c8 .L0 
GAS LISTING /tmp/ccEJ58Bj.s 			page 19


     /tmp/ccEJ58Bj.s:271    .text:00000000000001c8 .L0 
     /tmp/ccEJ58Bj.s:276    .text:00000000000001d4 .L0 
     /tmp/ccEJ58Bj.s:277    .text:00000000000001d4 .L0 
     /tmp/ccEJ58Bj.s:281    .text:00000000000001e0 .L0 
     /tmp/ccEJ58Bj.s:282    .text:00000000000001e0 .L0 
     /tmp/ccEJ58Bj.s:283    .text:00000000000001e0 .L0 
     /tmp/ccEJ58Bj.s:285    .text:00000000000001e4 .L0 
     /tmp/ccEJ58Bj.s:287    .text:00000000000001e8 .L0 
     /tmp/ccEJ58Bj.s:289    .text:00000000000001ec .L0 
     /tmp/ccEJ58Bj.s:290    .text:00000000000001ec .L0 
     /tmp/ccEJ58Bj.s:294    .text:00000000000001f0 .L0 
     /tmp/ccEJ58Bj.s:295    .text:00000000000001f0 .L0 
     /tmp/ccEJ58Bj.s:299    .text:00000000000001fc .L0 
     /tmp/ccEJ58Bj.s:300    .text:00000000000001fc .L0 
     /tmp/ccEJ58Bj.s:304    .text:0000000000000208 .L0 
     /tmp/ccEJ58Bj.s:305    .text:0000000000000208 .L0 
     /tmp/ccEJ58Bj.s:307    .text:0000000000000210 .L0 
     /tmp/ccEJ58Bj.s:308    .text:0000000000000210 .L0 
     /tmp/ccEJ58Bj.s:310    .text:0000000000000214 .L0 
     /tmp/ccEJ58Bj.s:311    .text:0000000000000214 .L0 
     /tmp/ccEJ58Bj.s:313    .text:0000000000000218 .L0 
     /tmp/ccEJ58Bj.s:316    .text:000000000000021c .L0 
     /tmp/ccEJ58Bj.s:319    .text:0000000000000220 .L0 
     /tmp/ccEJ58Bj.s:323    .text:0000000000000224 .L0 
     /tmp/ccEJ58Bj.s:325    .text:0000000000000224 .L0 
     /tmp/ccEJ58Bj.s:326    .text:0000000000000224 .L0 
     /tmp/ccEJ58Bj.s:328    .text:0000000000000228 .L0 
     /tmp/ccEJ58Bj.s:330    .text:000000000000022c .L0 
     /tmp/ccEJ58Bj.s:332    .text:0000000000000234 .L0 
     /tmp/ccEJ58Bj.s:338    .text:0000000000000234 _ZN13ConsoleBufferD2Ev
     /tmp/ccEJ58Bj.s:341    .text:0000000000000234 .L0 
     /tmp/ccEJ58Bj.s:4712   .data.rel.local.DW.ref.__gxx_personality_v0:0000000000000000 DW.ref.__gxx_personality_v0
     /tmp/ccEJ58Bj.s:345    .text:0000000000000234 .L0 
     /tmp/ccEJ58Bj.s:346    .text:0000000000000238 .L0 
     /tmp/ccEJ58Bj.s:351    .text:0000000000000248 .L0 
     /tmp/ccEJ58Bj.s:352    .text:0000000000000248 .L0 
     /tmp/ccEJ58Bj.s:353    .text:0000000000000248 .L0 
     /tmp/ccEJ58Bj.s:354    .text:0000000000000248 .L0 
     /tmp/ccEJ58Bj.s:356    .text:000000000000024c .L0 
     /tmp/ccEJ58Bj.s:362    .text:0000000000000250 .L0 
     /tmp/ccEJ58Bj.s:363    .text:0000000000000250 .L0 
     /tmp/ccEJ58Bj.s:364    .text:0000000000000250 .L0 
     /tmp/ccEJ58Bj.s:368    .text:000000000000025c .L0 
     /tmp/ccEJ58Bj.s:371    .text:0000000000000260 .L0 
     /tmp/ccEJ58Bj.s:372    .text:0000000000000260 .L0 
     /tmp/ccEJ58Bj.s:374    .text:0000000000000264 .L0 
     /tmp/ccEJ58Bj.s:376    .text:0000000000000268 .L0 
     /tmp/ccEJ58Bj.s:379    .text:000000000000026c .L0 
     /tmp/ccEJ58Bj.s:380    .text:000000000000026c .L0 
     /tmp/ccEJ58Bj.s:384    .text:0000000000000278 .L0 
     /tmp/ccEJ58Bj.s:385    .text:0000000000000278 .L0 
     /tmp/ccEJ58Bj.s:387    .text:000000000000027c .L0 
     /tmp/ccEJ58Bj.s:389    .text:0000000000000280 .L0 
     /tmp/ccEJ58Bj.s:391    .text:0000000000000284 .L0 
     /tmp/ccEJ58Bj.s:393    .text:0000000000000288 .L0 
     /tmp/ccEJ58Bj.s:396    .text:000000000000028c .L0 
     /tmp/ccEJ58Bj.s:399    .text:0000000000000290 .L0 
GAS LISTING /tmp/ccEJ58Bj.s 			page 20


     /tmp/ccEJ58Bj.s:400    .text:0000000000000290 .L0 
     /tmp/ccEJ58Bj.s:404    .text:000000000000029c .L0 
     /tmp/ccEJ58Bj.s:405    .text:000000000000029c .L0 
     /tmp/ccEJ58Bj.s:407    .text:00000000000002a0 .L0 
     /tmp/ccEJ58Bj.s:409    .text:00000000000002a4 .L0 
     /tmp/ccEJ58Bj.s:417    .text:00000000000002bc .L0 
     /tmp/ccEJ58Bj.s:418    .text:00000000000002bc .L0 
     /tmp/ccEJ58Bj.s:420    .text:00000000000002c0 .L0 
     /tmp/ccEJ58Bj.s:422    .text:00000000000002c4 .L0 
     /tmp/ccEJ58Bj.s:430    .text:00000000000002dc .L0 
     /tmp/ccEJ58Bj.s:431    .text:00000000000002dc .L0 
     /tmp/ccEJ58Bj.s:433    .text:00000000000002e0 .L0 
     /tmp/ccEJ58Bj.s:435    .text:00000000000002e4 .L0 
     /tmp/ccEJ58Bj.s:443    .text:00000000000002fc .L0 
     /tmp/ccEJ58Bj.s:444    .text:00000000000002fc .L0 
     /tmp/ccEJ58Bj.s:447    .text:0000000000000300 .L0 
     /tmp/ccEJ58Bj.s:449    .text:0000000000000304 .L0 
     /tmp/ccEJ58Bj.s:458    .text:000000000000031c .L0 
     /tmp/ccEJ58Bj.s:459    .text:0000000000000320 .L0 
     /tmp/ccEJ58Bj.s:461    .text:0000000000000324 .L0 
     /tmp/ccEJ58Bj.s:462    .text:0000000000000324 .L0 
     /tmp/ccEJ58Bj.s:464    .text:0000000000000328 .L0 
     /tmp/ccEJ58Bj.s:466    .text:000000000000032c .L0 
     /tmp/ccEJ58Bj.s:468    .text:0000000000000330 .L0 
     /tmp/ccEJ58Bj.s:470    .text:0000000000000334 .L0 
     /tmp/ccEJ58Bj.s:338    .text:0000000000000234 _ZN13ConsoleBufferD1Ev
     /tmp/ccEJ58Bj.s:486    .text:0000000000000334 _ZN13ConsoleBuffer6isFullEv
     /tmp/ccEJ58Bj.s:489    .text:0000000000000334 .L0 
     /tmp/ccEJ58Bj.s:491    .text:0000000000000334 .L0 
     /tmp/ccEJ58Bj.s:492    .text:0000000000000338 .L0 
     /tmp/ccEJ58Bj.s:497    .text:0000000000000348 .L0 
     /tmp/ccEJ58Bj.s:498    .text:0000000000000348 .L0 
     /tmp/ccEJ58Bj.s:499    .text:0000000000000348 .L0 
     /tmp/ccEJ58Bj.s:500    .text:0000000000000348 .L0 
     /tmp/ccEJ58Bj.s:502    .text:000000000000034c .L0 
     /tmp/ccEJ58Bj.s:505    .text:0000000000000350 .L0 
     /tmp/ccEJ58Bj.s:506    .text:0000000000000350 .L0 
     /tmp/ccEJ58Bj.s:511    .text:000000000000035c .L0 
     /tmp/ccEJ58Bj.s:512    .text:000000000000035c .L0 
     /tmp/ccEJ58Bj.s:516    .text:0000000000000368 .L0 
     /tmp/ccEJ58Bj.s:517    .text:0000000000000368 .L0 
     /tmp/ccEJ58Bj.s:518    .text:0000000000000368 .L0 
     /tmp/ccEJ58Bj.s:520    .text:000000000000036c .L0 
     /tmp/ccEJ58Bj.s:522    .text:0000000000000370 .L0 
     /tmp/ccEJ58Bj.s:524    .text:0000000000000374 .L0 
     /tmp/ccEJ58Bj.s:525    .text:0000000000000374 .L0 
     /tmp/ccEJ58Bj.s:529    .text:0000000000000378 .L0 
     /tmp/ccEJ58Bj.s:530    .text:0000000000000378 .L0 
     /tmp/ccEJ58Bj.s:534    .text:0000000000000384 .L0 
     /tmp/ccEJ58Bj.s:535    .text:0000000000000384 .L0 
     /tmp/ccEJ58Bj.s:539    .text:0000000000000390 .L0 
     /tmp/ccEJ58Bj.s:540    .text:0000000000000390 .L0 
     /tmp/ccEJ58Bj.s:543    .text:0000000000000398 .L0 
     /tmp/ccEJ58Bj.s:545    .text:00000000000003a0 .L0 
     /tmp/ccEJ58Bj.s:546    .text:00000000000003a0 .L0 
     /tmp/ccEJ58Bj.s:548    .text:00000000000003a4 .L0 
     /tmp/ccEJ58Bj.s:549    .text:00000000000003a4 .L0 
GAS LISTING /tmp/ccEJ58Bj.s 			page 21


     /tmp/ccEJ58Bj.s:551    .text:00000000000003a8 .L0 
     /tmp/ccEJ58Bj.s:554    .text:00000000000003ac .L0 
     /tmp/ccEJ58Bj.s:557    .text:00000000000003b0 .L0 
     /tmp/ccEJ58Bj.s:561    .text:00000000000003b4 .L0 
     /tmp/ccEJ58Bj.s:563    .text:00000000000003b4 .L0 
     /tmp/ccEJ58Bj.s:564    .text:00000000000003b4 .L0 
     /tmp/ccEJ58Bj.s:566    .text:00000000000003b8 .L0 
     /tmp/ccEJ58Bj.s:568    .text:00000000000003bc .L0 
     /tmp/ccEJ58Bj.s:570    .text:00000000000003c4 .L0 
     /tmp/ccEJ58Bj.s:576    .text:00000000000003c4 _ZN13ConsoleBuffernwEm
     /tmp/ccEJ58Bj.s:579    .text:00000000000003c4 .L0 
     /tmp/ccEJ58Bj.s:581    .text:00000000000003c4 .L0 
     /tmp/ccEJ58Bj.s:582    .text:00000000000003c8 .L0 
     /tmp/ccEJ58Bj.s:585    .text:00000000000003d0 .L0 
     /tmp/ccEJ58Bj.s:586    .text:00000000000003d0 .L0 
     /tmp/ccEJ58Bj.s:588    .text:00000000000003d4 .L0 
     /tmp/ccEJ58Bj.s:590    .text:00000000000003d4 .L0 
     /tmp/ccEJ58Bj.s:591    .text:00000000000003d4 .L0 
     /tmp/ccEJ58Bj.s:594    .text:00000000000003d8 .L0 
     /tmp/ccEJ58Bj.s:599    .text:00000000000003e4 .L0 
     /tmp/ccEJ58Bj.s:600    .text:00000000000003e8 .L0 
     /tmp/ccEJ58Bj.s:602    .text:00000000000003ec .L0 
     /tmp/ccEJ58Bj.s:603    .text:00000000000003ec .L0 
     /tmp/ccEJ58Bj.s:605    .text:00000000000003f0 .L0 
     /tmp/ccEJ58Bj.s:607    .text:00000000000003f4 .L0 
     /tmp/ccEJ58Bj.s:613    .text:00000000000003f4 _ZN13ConsoleBufferdlEPv
     /tmp/ccEJ58Bj.s:616    .text:00000000000003f4 .L0 
     /tmp/ccEJ58Bj.s:618    .text:00000000000003f4 .L0 
     /tmp/ccEJ58Bj.s:619    .text:00000000000003f8 .L0 
     /tmp/ccEJ58Bj.s:622    .text:0000000000000400 .L0 
     /tmp/ccEJ58Bj.s:623    .text:0000000000000400 .L0 
     /tmp/ccEJ58Bj.s:625    .text:0000000000000404 .L0 
     /tmp/ccEJ58Bj.s:627    .text:0000000000000404 .L0 
     /tmp/ccEJ58Bj.s:628    .text:0000000000000404 .L0 
     /tmp/ccEJ58Bj.s:631    .text:000000000000040c .L0 
     /tmp/ccEJ58Bj.s:632    .text:0000000000000410 .L0 
     /tmp/ccEJ58Bj.s:634    .text:0000000000000414 .L0 
     /tmp/ccEJ58Bj.s:635    .text:0000000000000414 .L0 
     /tmp/ccEJ58Bj.s:637    .text:0000000000000418 .L0 
     /tmp/ccEJ58Bj.s:639    .text:000000000000041c .L0 
     /tmp/ccEJ58Bj.s:645    .text:000000000000041c _ZN13ConsoleBuffernaEm
     /tmp/ccEJ58Bj.s:648    .text:000000000000041c .L0 
     /tmp/ccEJ58Bj.s:650    .text:000000000000041c .L0 
     /tmp/ccEJ58Bj.s:651    .text:0000000000000420 .L0 
     /tmp/ccEJ58Bj.s:654    .text:0000000000000428 .L0 
     /tmp/ccEJ58Bj.s:655    .text:0000000000000428 .L0 
     /tmp/ccEJ58Bj.s:657    .text:000000000000042c .L0 
     /tmp/ccEJ58Bj.s:659    .text:000000000000042c .L0 
     /tmp/ccEJ58Bj.s:660    .text:000000000000042c .L0 
     /tmp/ccEJ58Bj.s:663    .text:0000000000000430 .L0 
     /tmp/ccEJ58Bj.s:668    .text:000000000000043c .L0 
     /tmp/ccEJ58Bj.s:669    .text:0000000000000440 .L0 
     /tmp/ccEJ58Bj.s:671    .text:0000000000000444 .L0 
     /tmp/ccEJ58Bj.s:672    .text:0000000000000444 .L0 
     /tmp/ccEJ58Bj.s:674    .text:0000000000000448 .L0 
     /tmp/ccEJ58Bj.s:676    .text:000000000000044c .L0 
     /tmp/ccEJ58Bj.s:682    .text:000000000000044c _ZN13ConsoleBufferdaEPv
GAS LISTING /tmp/ccEJ58Bj.s 			page 22


     /tmp/ccEJ58Bj.s:685    .text:000000000000044c .L0 
     /tmp/ccEJ58Bj.s:687    .text:000000000000044c .L0 
     /tmp/ccEJ58Bj.s:688    .text:0000000000000450 .L0 
     /tmp/ccEJ58Bj.s:691    .text:0000000000000458 .L0 
     /tmp/ccEJ58Bj.s:692    .text:0000000000000458 .L0 
     /tmp/ccEJ58Bj.s:694    .text:000000000000045c .L0 
     /tmp/ccEJ58Bj.s:696    .text:000000000000045c .L0 
     /tmp/ccEJ58Bj.s:697    .text:000000000000045c .L0 
     /tmp/ccEJ58Bj.s:700    .text:0000000000000464 .L0 
     /tmp/ccEJ58Bj.s:701    .text:0000000000000468 .L0 
     /tmp/ccEJ58Bj.s:703    .text:000000000000046c .L0 
     /tmp/ccEJ58Bj.s:704    .text:000000000000046c .L0 
     /tmp/ccEJ58Bj.s:706    .text:0000000000000470 .L0 
     /tmp/ccEJ58Bj.s:708    .text:0000000000000474 .L0 
     /tmp/ccEJ58Bj.s:720    .text:0000000000000474 .L0 
     /tmp/ccEJ58Bj.s:322    .text:0000000000000224 .L8
     /tmp/ccEJ58Bj.s:292    .text:00000000000001f0 .L9
     /tmp/ccEJ58Bj.s:397    .text:0000000000000290 .L12
     /tmp/ccEJ58Bj.s:359    .text:0000000000000250 .L13
     /tmp/ccEJ58Bj.s:415    .text:00000000000002bc .L14
     /tmp/ccEJ58Bj.s:428    .text:00000000000002dc .L15
     /tmp/ccEJ58Bj.s:441    .text:00000000000002fc .L16
     /tmp/ccEJ58Bj.s:455    .text:000000000000031c .L11
     /tmp/ccEJ58Bj.s:560    .text:00000000000003b4 .L20
     /tmp/ccEJ58Bj.s:527    .text:0000000000000378 .L21
     /tmp/ccEJ58Bj.s:2830   .debug_abbrev:0000000000000000 .Ldebug_abbrev0
     /tmp/ccEJ58Bj.s:4624   .debug_str:0000000000000970 .LASF179
     /tmp/ccEJ58Bj.s:4684   .debug_str:0000000000000c04 .LASF180
     /tmp/ccEJ58Bj.s:4432   .debug_str:000000000000037a .LASF181
     /tmp/ccEJ58Bj.s:5      .text:0000000000000000 .Ltext0
     /tmp/ccEJ58Bj.s:711    .text:0000000000000474 .Letext0
     /tmp/ccEJ58Bj.s:4320   .debug_line:0000000000000000 .Ldebug_line0
     /tmp/ccEJ58Bj.s:4448   .debug_str:00000000000003e9 .LASF0
     /tmp/ccEJ58Bj.s:4470   .debug_str:00000000000004a0 .LASF1
     /tmp/ccEJ58Bj.s:4564   .debug_str:00000000000007a0 .LASF2
     /tmp/ccEJ58Bj.s:4414   .debug_str:00000000000002eb .LASF3
     /tmp/ccEJ58Bj.s:4572   .debug_str:00000000000007e3 .LASF4
     /tmp/ccEJ58Bj.s:4456   .debug_str:0000000000000415 .LASF5
     /tmp/ccEJ58Bj.s:4340   .debug_str:00000000000000a0 .LASF6
     /tmp/ccEJ58Bj.s:4544   .debug_str:0000000000000711 .LASF7
     /tmp/ccEJ58Bj.s:4534   .debug_str:00000000000006af .LASF8
     /tmp/ccEJ58Bj.s:4466   .debug_str:0000000000000488 .LASF9
     /tmp/ccEJ58Bj.s:4428   .debug_str:0000000000000352 .LASF10
     /tmp/ccEJ58Bj.s:4436   .debug_str:00000000000003a4 .LASF11
     /tmp/ccEJ58Bj.s:4372   .debug_str:000000000000019a .LASF12
     /tmp/ccEJ58Bj.s:4422   .debug_str:0000000000000332 .LASF13
     /tmp/ccEJ58Bj.s:4384   .debug_str:00000000000001eb .LASF14
     /tmp/ccEJ58Bj.s:4370   .debug_str:000000000000018a .LASF15
     /tmp/ccEJ58Bj.s:4600   .debug_str:00000000000008bc .LASF16
     /tmp/ccEJ58Bj.s:4408   .debug_str:00000000000002af .LASF17
     /tmp/ccEJ58Bj.s:4592   .debug_str:000000000000088d .LASF18
     /tmp/ccEJ58Bj.s:4574   .debug_str:00000000000007ea .LASF19
     /tmp/ccEJ58Bj.s:4336   .debug_str:000000000000008a .LASF21
     /tmp/ccEJ58Bj.s:4610   .debug_str:00000000000008ea .LASF23
     /tmp/ccEJ58Bj.s:4504   .debug_str:00000000000005d8 .LASF25
     /tmp/ccEJ58Bj.s:4352   .debug_str:0000000000000101 .LASF20
     /tmp/ccEJ58Bj.s:4644   .debug_str:0000000000000ad9 .LASF22
GAS LISTING /tmp/ccEJ58Bj.s 			page 23


     /tmp/ccEJ58Bj.s:4476   .debug_str:00000000000004c6 .LASF24
     /tmp/ccEJ58Bj.s:4656   .debug_str:0000000000000b1e .LASF26
     /tmp/ccEJ58Bj.s:4364   .debug_str:0000000000000158 .LASF27
     /tmp/ccEJ58Bj.s:4672   .debug_str:0000000000000bab .LASF28
     /tmp/ccEJ58Bj.s:4660   .debug_str:0000000000000b4e .LASF29
     /tmp/ccEJ58Bj.s:4566   .debug_str:00000000000007ae .LASF30
     /tmp/ccEJ58Bj.s:4358   .debug_str:000000000000012c .LASF31
     /tmp/ccEJ58Bj.s:4508   .debug_str:00000000000005f4 .LASF32
     /tmp/ccEJ58Bj.s:4636   .debug_str:0000000000000a8f .LASF33
     /tmp/ccEJ58Bj.s:4514   .debug_str:0000000000000636 .LASF34
     /tmp/ccEJ58Bj.s:4652   .debug_str:0000000000000b12 .LASF35
     /tmp/ccEJ58Bj.s:4462   .debug_str:0000000000000458 .LASF36
     /tmp/ccEJ58Bj.s:4598   .debug_str:00000000000008af .LASF37
     /tmp/ccEJ58Bj.s:4488   .debug_str:0000000000000522 .LASF38
     /tmp/ccEJ58Bj.s:4524   .debug_str:0000000000000673 .LASF182
     /tmp/ccEJ58Bj.s:4486   .debug_str:0000000000000516 .LASF183
     /tmp/ccEJ58Bj.s:4420   .debug_str:000000000000031b .LASF184
     /tmp/ccEJ58Bj.s:4662   .debug_str:0000000000000b59 .LASF39
     /tmp/ccEJ58Bj.s:4696   .debug_str:0000000000000c74 .LASF40
     /tmp/ccEJ58Bj.s:4398   .debug_str:0000000000000243 .LASF81
     /tmp/ccEJ58Bj.s:4400   .debug_str:0000000000000259 .LASF83
     /tmp/ccEJ58Bj.s:4568   .debug_str:00000000000007c4 .LASF41
     /tmp/ccEJ58Bj.s:4362   .debug_str:0000000000000143 .LASF42
     /tmp/ccEJ58Bj.s:4614   .debug_str:0000000000000923 .LASF43
     /tmp/ccEJ58Bj.s:4418   .debug_str:0000000000000305 .LASF44
     /tmp/ccEJ58Bj.s:4622   .debug_str:0000000000000968 .LASF53
     /tmp/ccEJ58Bj.s:4700   .debug_str:0000000000000cb3 .LASF45
     /tmp/ccEJ58Bj.s:4434   .debug_str:0000000000000398 .LASF46
     /tmp/ccEJ58Bj.s:4360   .debug_str:0000000000000133 .LASF47
     /tmp/ccEJ58Bj.s:4426   .debug_str:0000000000000346 .LASF48
     /tmp/ccEJ58Bj.s:4330   .debug_str:0000000000000050 .LASF49
     /tmp/ccEJ58Bj.s:4482   .debug_str:00000000000004f4 .LASF51
     /tmp/ccEJ58Bj.s:4590   .debug_str:000000000000087a .LASF50
     /tmp/ccEJ58Bj.s:4440   .debug_str:00000000000003c4 .LASF52
     /tmp/ccEJ58Bj.s:4328   .debug_str:000000000000004b .LASF54
     /tmp/ccEJ58Bj.s:4676   .debug_str:0000000000000bc9 .LASF55
     /tmp/ccEJ58Bj.s:4694   .debug_str:0000000000000c6e .LASF56
     /tmp/ccEJ58Bj.s:4410   .debug_str:00000000000002c5 .LASF57
     /tmp/ccEJ58Bj.s:4632   .debug_str:0000000000000a62 .LASF58
     /tmp/ccEJ58Bj.s:4606   .debug_str:00000000000008d8 .LASF59
     /tmp/ccEJ58Bj.s:4374   .debug_str:00000000000001a9 .LASF60
     /tmp/ccEJ58Bj.s:4518   .debug_str:0000000000000658 .LASF61
     /tmp/ccEJ58Bj.s:4388   .debug_str:0000000000000215 .LASF62
     /tmp/ccEJ58Bj.s:4578   .debug_str:0000000000000803 .LASF63
     /tmp/ccEJ58Bj.s:4506   .debug_str:00000000000005ef .LASF64
     /tmp/ccEJ58Bj.s:4630   .debug_str:0000000000000a52 .LASF65
     /tmp/ccEJ58Bj.s:4540   .debug_str:00000000000006f2 .LASF66
     /tmp/ccEJ58Bj.s:4478   .debug_str:00000000000004d3 .LASF68
     /tmp/ccEJ58Bj.s:4392   .debug_str:0000000000000228 .LASF67
     /tmp/ccEJ58Bj.s:4378   .debug_str:00000000000001b9 .LASF69
     /tmp/ccEJ58Bj.s:4584   .debug_str:000000000000084a .LASF110
     /tmp/ccEJ58Bj.s:4468   .debug_str:000000000000049b .LASF70
     /tmp/ccEJ58Bj.s:4348   .debug_str:00000000000000f2 .LASF71
     /tmp/ccEJ58Bj.s:4530   .debug_str:0000000000000693 .LASF72
     /tmp/ccEJ58Bj.s:4538   .debug_str:00000000000006e9 .LASF73
     /tmp/ccEJ58Bj.s:4526   .debug_str:0000000000000678 .LASF74
     /tmp/ccEJ58Bj.s:4438   .debug_str:00000000000003b2 .LASF185
GAS LISTING /tmp/ccEJ58Bj.s 			page 24


     /tmp/ccEJ58Bj.s:4494   .debug_str:0000000000000570 .LASF75
     /tmp/ccEJ58Bj.s:4342   .debug_str:00000000000000a7 .LASF76
     /tmp/ccEJ58Bj.s:4608   .debug_str:00000000000008e1 .LASF77
     /tmp/ccEJ58Bj.s:4496   .debug_str:000000000000057a .LASF78
     /tmp/ccEJ58Bj.s:4452   .debug_str:0000000000000402 .LASF79
     /tmp/ccEJ58Bj.s:4612   .debug_str:00000000000008f5 .LASF80
     /tmp/ccEJ58Bj.s:4376   .debug_str:00000000000001ae .LASF82
     /tmp/ccEJ58Bj.s:4634   .debug_str:0000000000000a6c .LASF84
     /tmp/ccEJ58Bj.s:4516   .debug_str:000000000000064d .LASF85
     /tmp/ccEJ58Bj.s:4474   .debug_str:00000000000004bd .LASF86
     /tmp/ccEJ58Bj.s:4692   .debug_str:0000000000000c69 .LASF87
     /tmp/ccEJ58Bj.s:4596   .debug_str:00000000000008aa .LASF88
     /tmp/ccEJ58Bj.s:4324   .debug_str:0000000000000021 .LASF89
     /tmp/ccEJ58Bj.s:4416   .debug_str:00000000000002f1 .LASF90
     /tmp/ccEJ58Bj.s:4480   .debug_str:00000000000004ec .LASF91
     /tmp/ccEJ58Bj.s:4638   .debug_str:0000000000000a9b .LASF92
     /tmp/ccEJ58Bj.s:4532   .debug_str:00000000000006a3 .LASF93
     /tmp/ccEJ58Bj.s:4460   .debug_str:0000000000000439 .LASF94
     /tmp/ccEJ58Bj.s:4704   .debug_str:0000000000000cd7 .LASF95
     /tmp/ccEJ58Bj.s:4688   .debug_str:0000000000000c41 .LASF96
     /tmp/ccEJ58Bj.s:4582   .debug_str:000000000000083f .LASF97
     /tmp/ccEJ58Bj.s:4620   .debug_str:000000000000094a .LASF98
     /tmp/ccEJ58Bj.s:4552   .debug_str:0000000000000759 .LASF99
     /tmp/ccEJ58Bj.s:4498   .debug_str:000000000000059b .LASF100
     /tmp/ccEJ58Bj.s:4402   .debug_str:000000000000027a .LASF101
     /tmp/ccEJ58Bj.s:4666   .debug_str:0000000000000b7b .LASF102
     /tmp/ccEJ58Bj.s:4594   .debug_str:00000000000008a3 .LASF103
     /tmp/ccEJ58Bj.s:4386   .debug_str:00000000000001fb .LASF104
     /tmp/ccEJ58Bj.s:4550   .debug_str:0000000000000741 .LASF105
     /tmp/ccEJ58Bj.s:4576   .debug_str:00000000000007ef .LASF106
     /tmp/ccEJ58Bj.s:4562   .debug_str:000000000000078c .LASF107
     /tmp/ccEJ58Bj.s:4484   .debug_str:0000000000000501 .LASF108
     /tmp/ccEJ58Bj.s:4570   .debug_str:00000000000007ce .LASF113
     /tmp/ccEJ58Bj.s:4558   .debug_str:000000000000077e .LASF109
     /tmp/ccEJ58Bj.s:4654   .debug_str:0000000000000b19 .LASF111
     /tmp/ccEJ58Bj.s:4380   .debug_str:00000000000001cc .LASF112
     /tmp/ccEJ58Bj.s:4586   .debug_str:0000000000000856 .LASF114
     /tmp/ccEJ58Bj.s:4668   .debug_str:0000000000000b96 .LASF165
     /tmp/ccEJ58Bj.s:4556   .debug_str:0000000000000779 .LASF115
     /tmp/ccEJ58Bj.s:4354   .debug_str:000000000000010d .LASF116
     /tmp/ccEJ58Bj.s:4560   .debug_str:0000000000000783 .LASF117
     /tmp/ccEJ58Bj.s:4658   .debug_str:0000000000000b37 .LASF118
     /tmp/ccEJ58Bj.s:4394   .debug_str:0000000000000231 .LASF119
     /tmp/ccEJ58Bj.s:4588   .debug_str:000000000000086b .LASF120
     /tmp/ccEJ58Bj.s:4604   .debug_str:00000000000008d1 .LASF121
     /tmp/ccEJ58Bj.s:4542   .debug_str:0000000000000700 .LASF122
     /tmp/ccEJ58Bj.s:4350   .debug_str:00000000000000f7 .LASF123
     /tmp/ccEJ58Bj.s:4512   .debug_str:0000000000000622 .LASF124
     /tmp/ccEJ58Bj.s:4520   .debug_str:0000000000000660 .LASF125
     /tmp/ccEJ58Bj.s:4458   .debug_str:0000000000000427 .LASF126
     /tmp/ccEJ58Bj.s:4442   .debug_str:00000000000003d1 .LASF127
     /tmp/ccEJ58Bj.s:4406   .debug_str:000000000000029e .LASF128
     /tmp/ccEJ58Bj.s:4446   .debug_str:00000000000003e3 .LASF129
     /tmp/ccEJ58Bj.s:4546   .debug_str:0000000000000718 .LASF130
     /tmp/ccEJ58Bj.s:4690   .debug_str:0000000000000c5e .LASF131
     /tmp/ccEJ58Bj.s:4382   .debug_str:00000000000001d5 .LASF132
     /tmp/ccEJ58Bj.s:4332   .debug_str:0000000000000060 .LASF133
GAS LISTING /tmp/ccEJ58Bj.s 			page 25


     /tmp/ccEJ58Bj.s:4344   .debug_str:00000000000000c8 .LASF134
     /tmp/ccEJ58Bj.s:4450   .debug_str:00000000000003f6 .LASF135
     /tmp/ccEJ58Bj.s:4528   .debug_str:0000000000000686 .LASF136
     /tmp/ccEJ58Bj.s:4642   .debug_str:0000000000000ac8 .LASF137
     /tmp/ccEJ58Bj.s:4648   .debug_str:0000000000000afe .LASF138
     /tmp/ccEJ58Bj.s:4680   .debug_str:0000000000000bf7 .LASF139
     /tmp/ccEJ58Bj.s:4356   .debug_str:0000000000000119 .LASF140
     /tmp/ccEJ58Bj.s:4522   .debug_str:0000000000000668 .LASF141
     /tmp/ccEJ58Bj.s:4698   .debug_str:0000000000000c8a .LASF142
     /tmp/ccEJ58Bj.s:4322   .debug_str:0000000000000000 .LASF143
     /tmp/ccEJ58Bj.s:4334   .debug_str:0000000000000068 .LASF186
     /tmp/ccEJ58Bj.s:4404   .debug_str:0000000000000282 .LASF144
     /tmp/ccEJ58Bj.s:4464   .debug_str:0000000000000469 .LASF145
     /tmp/ccEJ58Bj.s:4390   .debug_str:000000000000021e .LASF187
     /tmp/ccEJ58Bj.s:4412   .debug_str:00000000000002cc .LASF188
     /tmp/ccEJ58Bj.s:4686   .debug_str:0000000000000c1a .LASF146
     /tmp/ccEJ58Bj.s:4326   .debug_str:0000000000000027 .LASF147
     /tmp/ccEJ58Bj.s:4396   .debug_str:0000000000000236 .LASF148
     /tmp/ccEJ58Bj.s:4678   .debug_str:0000000000000bcf .LASF149
     /tmp/ccEJ58Bj.s:4674   .debug_str:0000000000000bbd .LASF150
     /tmp/ccEJ58Bj.s:4536   .debug_str:00000000000006c2 .LASF151
     /tmp/ccEJ58Bj.s:4444   .debug_str:00000000000003d8 .LASF152
     /tmp/ccEJ58Bj.s:4580   .debug_str:0000000000000814 .LASF153
     /tmp/ccEJ58Bj.s:4682   .debug_str:0000000000000bfe .LASF154
     /tmp/ccEJ58Bj.s:4616   .debug_str:000000000000092e .LASF155
     /tmp/ccEJ58Bj.s:4646   .debug_str:0000000000000af0 .LASF156
     /tmp/ccEJ58Bj.s:4628   .debug_str:0000000000000a4b .LASF157
     /tmp/ccEJ58Bj.s:4640   .debug_str:0000000000000ab9 .LASF158
     /tmp/ccEJ58Bj.s:4492   .debug_str:0000000000000562 .LASF159
     /tmp/ccEJ58Bj.s:4472   .debug_str:00000000000004b3 .LASF160
     /tmp/ccEJ58Bj.s:4500   .debug_str:00000000000005b7 .LASF161
     /tmp/ccEJ58Bj.s:4554   .debug_str:0000000000000762 .LASF162
     /tmp/ccEJ58Bj.s:4368   .debug_str:000000000000017b .LASF163
     /tmp/ccEJ58Bj.s:4502   .debug_str:00000000000005c1 .LASF164
     /tmp/ccEJ58Bj.s:4490   .debug_str:0000000000000549 .LASF166
     /tmp/ccEJ58Bj.s:4548   .debug_str:0000000000000728 .LASF189
     /tmp/ccEJ58Bj.s:4650   .debug_str:0000000000000b0b .LASF167
     /tmp/ccEJ58Bj.s:4366   .debug_str:000000000000015f .LASF168
     /tmp/ccEJ58Bj.s:4510   .debug_str:0000000000000606 .LASF169
     /tmp/ccEJ58Bj.s:4626   .debug_str:0000000000000a34 .LASF170
     /tmp/ccEJ58Bj.s:4618   .debug_str:0000000000000933 .LASF171
     /tmp/ccEJ58Bj.s:4346   .debug_str:00000000000000da .LASF172
     /tmp/ccEJ58Bj.s:4430   .debug_str:0000000000000362 .LASF173
     /tmp/ccEJ58Bj.s:4454   .debug_str:000000000000040c .LASF174
     /tmp/ccEJ58Bj.s:683    .text:000000000000044c .LFB83
     /tmp/ccEJ58Bj.s:709    .text:0000000000000474 .LFE83
     /tmp/ccEJ58Bj.s:4062   .debug_loc:0000000000000000 .LLST15
     /tmp/ccEJ58Bj.s:698    .text:0000000000000464 .LVL70
     /tmp/ccEJ58Bj.s:646    .text:000000000000041c .LFB82
     /tmp/ccEJ58Bj.s:677    .text:000000000000044c .LFE82
     /tmp/ccEJ58Bj.s:4076   .debug_loc:0000000000000039 .LLST14
     /tmp/ccEJ58Bj.s:666    .text:000000000000043c .LVL68
     /tmp/ccEJ58Bj.s:614    .text:00000000000003f4 .LFB81
     /tmp/ccEJ58Bj.s:640    .text:000000000000041c .LFE81
     /tmp/ccEJ58Bj.s:4096   .debug_loc:0000000000000088 .LLST13
     /tmp/ccEJ58Bj.s:629    .text:000000000000040c .LVL64
     /tmp/ccEJ58Bj.s:577    .text:00000000000003c4 .LFB80
GAS LISTING /tmp/ccEJ58Bj.s 			page 26


     /tmp/ccEJ58Bj.s:608    .text:00000000000003f4 .LFE80
     /tmp/ccEJ58Bj.s:4110   .debug_loc:00000000000000c1 .LLST12
     /tmp/ccEJ58Bj.s:597    .text:00000000000003e4 .LVL62
     /tmp/ccEJ58Bj.s:487    .text:0000000000000334 .LFB79
     /tmp/ccEJ58Bj.s:571    .text:00000000000003c4 .LFE79
     /tmp/ccEJ58Bj.s:4424   .debug_str:0000000000000341 .LASF175
     /tmp/ccEJ58Bj.s:4130   .debug_loc:0000000000000110 .LLST10
     /tmp/ccEJ58Bj.s:4152   .debug_loc:000000000000016f .LLST11
     /tmp/ccEJ58Bj.s:509    .text:000000000000035c .LVL51
     /tmp/ccEJ58Bj.s:514    .text:0000000000000368 .LVL52
     /tmp/ccEJ58Bj.s:532    .text:0000000000000384 .LVL54
     /tmp/ccEJ58Bj.s:537    .text:0000000000000390 .LVL55
     /tmp/ccEJ58Bj.s:252    .text:00000000000001ac .LFB78
     /tmp/ccEJ58Bj.s:333    .text:0000000000000234 .LFE78
     /tmp/ccEJ58Bj.s:4159   .debug_loc:0000000000000192 .LLST6
     /tmp/ccEJ58Bj.s:4181   .debug_loc:00000000000001f1 .LLST7
     /tmp/ccEJ58Bj.s:274    .text:00000000000001d4 .LVL26
     /tmp/ccEJ58Bj.s:279    .text:00000000000001e0 .LVL27
     /tmp/ccEJ58Bj.s:297    .text:00000000000001fc .LVL29
     /tmp/ccEJ58Bj.s:302    .text:0000000000000208 .LVL30
     /tmp/ccEJ58Bj.s:171    .text:0000000000000124 .LFB77
     /tmp/ccEJ58Bj.s:246    .text:00000000000001ac .LFE77
     /tmp/ccEJ58Bj.s:4188   .debug_loc:0000000000000214 .LLST4
     /tmp/ccEJ58Bj.s:4206   .debug_loc:0000000000000260 .LLST5
     /tmp/ccEJ58Bj.s:193    .text:000000000000014c .LVL17
     /tmp/ccEJ58Bj.s:198    .text:0000000000000158 .LVL18
     /tmp/ccEJ58Bj.s:222    .text:0000000000000184 .LVL20
     /tmp/ccEJ58Bj.s:227    .text:0000000000000190 .LVL21
     /tmp/ccEJ58Bj.s:92     .text:0000000000000098 .LFB76
     /tmp/ccEJ58Bj.s:165    .text:0000000000000124 .LFE76
     /tmp/ccEJ58Bj.s:4217   .debug_loc:0000000000000296 .LLST2
     /tmp/ccEJ58Bj.s:4235   .debug_loc:00000000000002e2 .LLST3
     /tmp/ccEJ58Bj.s:115    .text:00000000000000c4 .LVL10
     /tmp/ccEJ58Bj.s:120    .text:00000000000000d0 .LVL11
     /tmp/ccEJ58Bj.s:144    .text:0000000000000100 .LVL12
     /tmp/ccEJ58Bj.s:149    .text:000000000000010c .LVL13
     /tmp/ccEJ58Bj.s:4338   .debug_str:0000000000000096 .LASF176
     /tmp/ccEJ58Bj.s:4664   .debug_str:0000000000000b64 .LASF177
     /tmp/ccEJ58Bj.s:339    .text:0000000000000234 .LFB74
     /tmp/ccEJ58Bj.s:471    .text:0000000000000334 .LFE74
     /tmp/ccEJ58Bj.s:4249   .debug_loc:000000000000031b .LLST8
     /tmp/ccEJ58Bj.s:382    .text:0000000000000278 .LVL38
     /tmp/ccEJ58Bj.s:369    .text:0000000000000260 .LBB4
     /tmp/ccEJ58Bj.s:394    .text:000000000000028c .LBE4
     /tmp/ccEJ58Bj.s:4267   .debug_loc:0000000000000367 .LLST9
     /tmp/ccEJ58Bj.s:366    .text:000000000000025c .LVL36
     /tmp/ccEJ58Bj.s:402    .text:000000000000029c .LVL39
     /tmp/ccEJ58Bj.s:411    .text:00000000000002b0 .LVL40
     /tmp/ccEJ58Bj.s:414    .text:00000000000002bc .LVL41
     /tmp/ccEJ58Bj.s:424    .text:00000000000002d0 .LVL42
     /tmp/ccEJ58Bj.s:427    .text:00000000000002dc .LVL43
     /tmp/ccEJ58Bj.s:437    .text:00000000000002f0 .LVL44
     /tmp/ccEJ58Bj.s:440    .text:00000000000002fc .LVL45
     /tmp/ccEJ58Bj.s:451    .text:0000000000000310 .LVL47
     /tmp/ccEJ58Bj.s:454    .text:000000000000031c .LVL48
     /tmp/ccEJ58Bj.s:4702   .debug_str:0000000000000cc0 .LASF178
     /tmp/ccEJ58Bj.s:10     .text:0000000000000000 .LFB71
GAS LISTING /tmp/ccEJ58Bj.s 			page 27


     /tmp/ccEJ58Bj.s:84     .text:0000000000000098 .LFE71
     /tmp/ccEJ58Bj.s:4275   .debug_loc:000000000000038b .LLST0
     /tmp/ccEJ58Bj.s:4293   .debug_loc:00000000000003d7 .LLST1
     /tmp/ccEJ58Bj.s:41     .text:000000000000003c .LVL2
     /tmp/ccEJ58Bj.s:49     .text:0000000000000050 .LVL3
     /tmp/ccEJ58Bj.s:55     .text:0000000000000060 .LVL4
     /tmp/ccEJ58Bj.s:61     .text:0000000000000070 .LVL5
     /tmp/ccEJ58Bj.s:67     .text:0000000000000080 .LVL6
     /tmp/ccEJ58Bj.s:4602   .debug_str:00000000000008c8 .LASF190
     /tmp/ccEJ58Bj.s:4670   .debug_str:0000000000000ba6 .LASF191
     /tmp/ccEJ58Bj.s:686    .text:000000000000044c .LVL69
     /tmp/ccEJ58Bj.s:649    .text:000000000000041c .LVL65
     /tmp/ccEJ58Bj.s:661    .text:0000000000000430 .LVL66
     /tmp/ccEJ58Bj.s:664    .text:0000000000000434 .LVL67
     /tmp/ccEJ58Bj.s:617    .text:00000000000003f4 .LVL63
     /tmp/ccEJ58Bj.s:580    .text:00000000000003c4 .LVL59
     /tmp/ccEJ58Bj.s:592    .text:00000000000003d8 .LVL60
     /tmp/ccEJ58Bj.s:595    .text:00000000000003dc .LVL61
     /tmp/ccEJ58Bj.s:490    .text:0000000000000334 .LVL49
     /tmp/ccEJ58Bj.s:507    .text:0000000000000354 .LVL50
     /tmp/ccEJ58Bj.s:552    .text:00000000000003a8 .LVL56
     /tmp/ccEJ58Bj.s:559    .text:00000000000003b4 .LVL58
     /tmp/ccEJ58Bj.s:526    .text:0000000000000378 .LVL53
     /tmp/ccEJ58Bj.s:555    .text:00000000000003ac .LVL57
     /tmp/ccEJ58Bj.s:255    .text:00000000000001ac .LVL24
     /tmp/ccEJ58Bj.s:272    .text:00000000000001cc .LVL25
     /tmp/ccEJ58Bj.s:314    .text:0000000000000218 .LVL31
     /tmp/ccEJ58Bj.s:321    .text:0000000000000224 .LVL33
     /tmp/ccEJ58Bj.s:291    .text:00000000000001f0 .LVL28
     /tmp/ccEJ58Bj.s:317    .text:000000000000021c .LVL32
     /tmp/ccEJ58Bj.s:174    .text:0000000000000124 .LVL15
     /tmp/ccEJ58Bj.s:191    .text:0000000000000144 .LVL16
     /tmp/ccEJ58Bj.s:238    .text:00000000000001a0 .LVL22
     /tmp/ccEJ58Bj.s:208    .text:0000000000000168 .LVL19
     /tmp/ccEJ58Bj.s:241    .text:00000000000001a4 .LVL23
     /tmp/ccEJ58Bj.s:95     .text:0000000000000098 .LVL8
     /tmp/ccEJ58Bj.s:113    .text:00000000000000bc .LVL9
     /tmp/ccEJ58Bj.s:158    .text:0000000000000118 .LVL14
     /tmp/ccEJ58Bj.s:344    .text:0000000000000234 .LVL34
     /tmp/ccEJ58Bj.s:358    .text:0000000000000250 .LVL35
     /tmp/ccEJ58Bj.s:445    .text:0000000000000300 .LVL46
     /tmp/ccEJ58Bj.s:377    .text:000000000000026c .LVL37
     /tmp/ccEJ58Bj.s:14     .text:0000000000000000 .LVL0
     /tmp/ccEJ58Bj.s:37     .text:0000000000000030 .LVL1
     /tmp/ccEJ58Bj.s:77     .text:000000000000008c .LVL7
     /tmp/ccEJ58Bj.s:721    .debug_info:0000000000000000 .Ldebug_info0
     /tmp/ccEJ58Bj.s:474    .gcc_except_table:0000000000000000 .LLSDA74

UNDEFINED SYMBOLS
_ZN15MemoryAllocator9mem_allocEm
_ZN3sem8sem_openEPPS_i
_ZN3sem4waitEv
_ZN3sem6signalEv
_Z4putcc
_ZN15MemoryAllocator8mem_freeEPv
_ZN3semD1Ev
_ZN3semdlEPv
GAS LISTING /tmp/ccEJ58Bj.s 			page 28


__gxx_personality_v0
