GAS LISTING /tmp/ccEJ58Bj.s 			page 1


   1              		.file	"consoleBuffer.cpp"
   2              		.option pic
   3              		.option norelax
   4              		.text
   5              	.Ltext0:
   6              		.align	2
   7              		.globl	_ZN13ConsoleBufferC2Ei
   9              	_ZN13ConsoleBufferC2Ei:
  10              	.LFB71:
  11              		.file 1 "src/consoleBuffer.cpp"
   1:src/consoleBuffer.cpp **** #include "../h/consoleBuffer.hpp"
   2:src/consoleBuffer.cpp **** extern size_t descSize;
   3:src/consoleBuffer.cpp **** 
   4:src/consoleBuffer.cpp **** extern size_t convertSizeInBlocks(size_t size);
   5:src/consoleBuffer.cpp **** 
   6:src/consoleBuffer.cpp **** ConsoleBuffer::ConsoleBuffer(int cap) : cap(cap), head(0), tail(0) {
  12              		.loc 1 6 1
  13              		.cfi_startproc
  14              	.LVL0:
  15 0000 130101FE 		addi	sp,sp,-32
  16              		.cfi_def_cfa_offset 32
  17 0004 233C1100 		sd	ra,24(sp)
  18 0008 23388100 		sd	s0,16(sp)
  19 000c 23349100 		sd	s1,8(sp)
  20 0010 23302101 		sd	s2,0(sp)
  21              		.cfi_offset 1, -8
  22              		.cfi_offset 8, -16
  23              		.cfi_offset 9, -24
  24              		.cfi_offset 18, -32
  25 0014 13040102 		addi	s0,sp,32
  26              		.cfi_def_cfa 8, 0
  27 0018 93040500 		mv	s1,a0
  28 001c 13890500 		mv	s2,a1
  29              	.LBB2:
  30              		.loc 1 6 66 is_stmt 0
  31 0020 2320B500 		sw	a1,0(a0)
  32 0024 23280500 		sw	zero,16(a0)
  33 0028 232A0500 		sw	zero,20(a0)
   7:src/consoleBuffer.cpp ****     buffer = (char *)MemoryAllocator::mem_alloc(CONVERT_SIZE_TO_BLOCKS(sizeof(char) * cap));
  34              		.loc 1 7 5 is_stmt 1
  35              		.loc 1 7 49 is_stmt 0
  36 002c 1385F50F 		addi	a0,a1,255
  37              	.LVL1:
  38              		.loc 1 7 48
  39 0030 13558500 		srli	a0,a0,8
  40 0034 97000000 		call	_ZN15MemoryAllocator9mem_allocEm@plt
  40      E7800000 
  41              	.LVL2:
  42              		.loc 1 7 12
  43 003c 23B4A400 		sd	a0,8(s1)
   8:src/consoleBuffer.cpp **** 
   9:src/consoleBuffer.cpp ****     sem::sem_open(&itemAvailable, 0);
  44              		.loc 1 9 5 is_stmt 1
  45              		.loc 1 9 18 is_stmt 0
  46 0040 93050000 		li	a1,0
  47 0044 13850402 		addi	a0,s1,32
  48 0048 97000000 		call	_ZN3sem8sem_openEPPS_i@plt
GAS LISTING /tmp/ccEJ58Bj.s 			page 2


  48      E7800000 
  49              	.LVL3:
  10:src/consoleBuffer.cpp ****     sem::sem_open(&spaceAvailable, cap);
  50              		.loc 1 10 5 is_stmt 1
  51              		.loc 1 10 18 is_stmt 0
  52 0050 93050900 		mv	a1,s2
  53 0054 13858401 		addi	a0,s1,24
  54 0058 97000000 		call	_ZN3sem8sem_openEPPS_i@plt
  54      E7800000 
  55              	.LVL4:
  11:src/consoleBuffer.cpp ****     sem::sem_open(&mutexHead, 1);
  56              		.loc 1 11 5 is_stmt 1
  57              		.loc 1 11 18 is_stmt 0
  58 0060 93051000 		li	a1,1
  59 0064 13858402 		addi	a0,s1,40
  60 0068 97000000 		call	_ZN3sem8sem_openEPPS_i@plt
  60      E7800000 
  61              	.LVL5:
  12:src/consoleBuffer.cpp ****     sem::sem_open(&mutexTail, 1);
  62              		.loc 1 12 5 is_stmt 1
  63              		.loc 1 12 18 is_stmt 0
  64 0070 93051000 		li	a1,1
  65 0074 13850403 		addi	a0,s1,48
  66 0078 97000000 		call	_ZN3sem8sem_openEPPS_i@plt
  66      E7800000 
  67              	.LVL6:
  68              	.LBE2:
  13:src/consoleBuffer.cpp **** }
  69              		.loc 1 13 1
  70 0080 83308101 		ld	ra,24(sp)
  71              		.cfi_restore 1
  72 0084 03340101 		ld	s0,16(sp)
  73              		.cfi_restore 8
  74              		.cfi_def_cfa 2, 32
  75 0088 83348100 		ld	s1,8(sp)
  76              		.cfi_restore 9
  77              	.LVL7:
  78 008c 03390100 		ld	s2,0(sp)
  79              		.cfi_restore 18
  80 0090 13010102 		addi	sp,sp,32
  81              		.cfi_def_cfa_offset 0
  82 0094 67800000 		jr	ra
  83              		.cfi_endproc
  84              	.LFE71:
  86              		.globl	_ZN13ConsoleBufferC1Ei
  87              		.set	_ZN13ConsoleBufferC1Ei,_ZN13ConsoleBufferC2Ei
  88              		.align	2
  89              		.globl	_ZN13ConsoleBuffer3putEc
  91              	_ZN13ConsoleBuffer3putEc:
  92              	.LFB76:
  14:src/consoleBuffer.cpp **** 
  15:src/consoleBuffer.cpp **** ConsoleBuffer::~ConsoleBuffer() {
  16:src/consoleBuffer.cpp ****     while (getCnt() > 0) {
  17:src/consoleBuffer.cpp ****         char c = buffer[head];
  18:src/consoleBuffer.cpp ****         putc(c);
  19:src/consoleBuffer.cpp ****         head = (head + 1) % cap;
  20:src/consoleBuffer.cpp ****     }
GAS LISTING /tmp/ccEJ58Bj.s 			page 3


  21:src/consoleBuffer.cpp **** 
  22:src/consoleBuffer.cpp ****     MemoryAllocator::mem_free(buffer);
  23:src/consoleBuffer.cpp ****     delete itemAvailable;
  24:src/consoleBuffer.cpp ****     delete spaceAvailable;
  25:src/consoleBuffer.cpp ****     delete mutexTail;
  26:src/consoleBuffer.cpp ****     delete mutexHead;
  27:src/consoleBuffer.cpp **** }
  28:src/consoleBuffer.cpp **** 
  29:src/consoleBuffer.cpp **** void ConsoleBuffer::put(char c) {
  93              		.loc 1 29 33 is_stmt 1
  94              		.cfi_startproc
  95              	.LVL8:
  96 0098 130101FE 		addi	sp,sp,-32
  97              		.cfi_def_cfa_offset 32
  98 009c 233C1100 		sd	ra,24(sp)
  99 00a0 23388100 		sd	s0,16(sp)
 100 00a4 23349100 		sd	s1,8(sp)
 101 00a8 23302101 		sd	s2,0(sp)
 102              		.cfi_offset 1, -8
 103              		.cfi_offset 8, -16
 104              		.cfi_offset 9, -24
 105              		.cfi_offset 18, -32
 106 00ac 13040102 		addi	s0,sp,32
 107              		.cfi_def_cfa 8, 0
 108 00b0 93040500 		mv	s1,a0
 109 00b4 13890500 		mv	s2,a1
  30:src/consoleBuffer.cpp ****     spaceAvailable->wait();
 110              		.loc 1 30 5
 111              		.loc 1 30 25 is_stmt 0
 112 00b8 03358501 		ld	a0,24(a0)
 113              	.LVL9:
 114 00bc 97000000 		call	_ZN3sem4waitEv@plt
 114      E7800000 
 115              	.LVL10:
  31:src/consoleBuffer.cpp ****     mutexTail->wait();
 116              		.loc 1 31 5 is_stmt 1
 117              		.loc 1 31 20 is_stmt 0
 118 00c4 03B50403 		ld	a0,48(s1)
 119 00c8 97000000 		call	_ZN3sem4waitEv@plt
 119      E7800000 
 120              	.LVL11:
  32:src/consoleBuffer.cpp **** 
  33:src/consoleBuffer.cpp ****     buffer[tail] = c;
 121              		.loc 1 33 5 is_stmt 1
 122 00d0 83B78400 		ld	a5,8(s1)
 123              		.loc 1 33 12 is_stmt 0
 124 00d4 03A74401 		lw	a4,20(s1)
 125              		.loc 1 33 16
 126 00d8 B387E700 		add	a5,a5,a4
 127              		.loc 1 33 18
 128 00dc 23802701 		sb	s2,0(a5)
  34:src/consoleBuffer.cpp ****     tail = (tail + 1) % cap;
 129              		.loc 1 34 5 is_stmt 1
 130              		.loc 1 34 13 is_stmt 0
 131 00e0 83A74401 		lw	a5,20(s1)
 132              		.loc 1 34 18
 133 00e4 9B871700 		addiw	a5,a5,1
GAS LISTING /tmp/ccEJ58Bj.s 			page 4


 134              		.loc 1 34 25
 135 00e8 03A70400 		lw	a4,0(s1)
 136              		.loc 1 34 23
 137 00ec BBE7E702 		remw	a5,a5,a4
 138              		.loc 1 34 10
 139 00f0 23AAF400 		sw	a5,20(s1)
  35:src/consoleBuffer.cpp **** 
  36:src/consoleBuffer.cpp ****     mutexTail->signal();
 140              		.loc 1 36 5 is_stmt 1
 141              		.loc 1 36 22 is_stmt 0
 142 00f4 03B50403 		ld	a0,48(s1)
 143 00f8 97000000 		call	_ZN3sem6signalEv@plt
 143      E7800000 
 144              	.LVL12:
  37:src/consoleBuffer.cpp ****     itemAvailable->signal();
 145              		.loc 1 37 5 is_stmt 1
 146              		.loc 1 37 26 is_stmt 0
 147 0100 03B50402 		ld	a0,32(s1)
 148 0104 97000000 		call	_ZN3sem6signalEv@plt
 148      E7800000 
 149              	.LVL13:
  38:src/consoleBuffer.cpp **** }
 150              		.loc 1 38 1
 151 010c 83308101 		ld	ra,24(sp)
 152              		.cfi_restore 1
 153 0110 03340101 		ld	s0,16(sp)
 154              		.cfi_restore 8
 155              		.cfi_def_cfa 2, 32
 156 0114 83348100 		ld	s1,8(sp)
 157              		.cfi_restore 9
 158              	.LVL14:
 159 0118 03390100 		ld	s2,0(sp)
 160              		.cfi_restore 18
 161 011c 13010102 		addi	sp,sp,32
 162              		.cfi_def_cfa_offset 0
 163 0120 67800000 		jr	ra
 164              		.cfi_endproc
 165              	.LFE76:
 167              		.align	2
 168              		.globl	_ZN13ConsoleBuffer3getEv
 170              	_ZN13ConsoleBuffer3getEv:
 171              	.LFB77:
  39:src/consoleBuffer.cpp **** 
  40:src/consoleBuffer.cpp **** int ConsoleBuffer::get() {
 172              		.loc 1 40 26 is_stmt 1
 173              		.cfi_startproc
 174              	.LVL15:
 175 0124 130101FE 		addi	sp,sp,-32
 176              		.cfi_def_cfa_offset 32
 177 0128 233C1100 		sd	ra,24(sp)
 178 012c 23388100 		sd	s0,16(sp)
 179 0130 23349100 		sd	s1,8(sp)
 180 0134 23302101 		sd	s2,0(sp)
 181              		.cfi_offset 1, -8
 182              		.cfi_offset 8, -16
 183              		.cfi_offset 9, -24
 184              		.cfi_offset 18, -32
GAS LISTING /tmp/ccEJ58Bj.s 			page 5


 185 0138 13040102 		addi	s0,sp,32
 186              		.cfi_def_cfa 8, 0
 187 013c 93040500 		mv	s1,a0
  41:src/consoleBuffer.cpp ****     itemAvailable->wait();
 188              		.loc 1 41 5
 189              		.loc 1 41 24 is_stmt 0
 190 0140 03350502 		ld	a0,32(a0)
 191              	.LVL16:
 192 0144 97000000 		call	_ZN3sem4waitEv@plt
 192      E7800000 
 193              	.LVL17:
  42:src/consoleBuffer.cpp ****     mutexHead->wait();
 194              		.loc 1 42 5 is_stmt 1
 195              		.loc 1 42 20 is_stmt 0
 196 014c 03B58402 		ld	a0,40(s1)
 197 0150 97000000 		call	_ZN3sem4waitEv@plt
 197      E7800000 
 198              	.LVL18:
  43:src/consoleBuffer.cpp **** 
  44:src/consoleBuffer.cpp ****     char ret = buffer[head];
 199              		.loc 1 44 5 is_stmt 1
 200              		.loc 1 44 16 is_stmt 0
 201 0158 03B78400 		ld	a4,8(s1)
 202              		.loc 1 44 23
 203 015c 83A70401 		lw	a5,16(s1)
 204              		.loc 1 44 27
 205 0160 3307F700 		add	a4,a4,a5
 206              		.loc 1 44 10
 207 0164 03490700 		lbu	s2,0(a4)
 208              	.LVL19:
  45:src/consoleBuffer.cpp ****     head = (head + 1) % cap;
 209              		.loc 1 45 5 is_stmt 1
 210              		.loc 1 45 18 is_stmt 0
 211 0168 9B871700 		addiw	a5,a5,1
 212              		.loc 1 45 25
 213 016c 03A70400 		lw	a4,0(s1)
 214              		.loc 1 45 23
 215 0170 BBE7E702 		remw	a5,a5,a4
 216              		.loc 1 45 10
 217 0174 23A8F400 		sw	a5,16(s1)
  46:src/consoleBuffer.cpp **** 
  47:src/consoleBuffer.cpp ****     mutexHead->signal();
 218              		.loc 1 47 5 is_stmt 1
 219              		.loc 1 47 22 is_stmt 0
 220 0178 03B58402 		ld	a0,40(s1)
 221 017c 97000000 		call	_ZN3sem6signalEv@plt
 221      E7800000 
 222              	.LVL20:
  48:src/consoleBuffer.cpp ****     spaceAvailable->signal();
 223              		.loc 1 48 5 is_stmt 1
 224              		.loc 1 48 27 is_stmt 0
 225 0184 03B58401 		ld	a0,24(s1)
 226 0188 97000000 		call	_ZN3sem6signalEv@plt
 226      E7800000 
 227              	.LVL21:
  49:src/consoleBuffer.cpp **** 
  50:src/consoleBuffer.cpp ****     return ret;
GAS LISTING /tmp/ccEJ58Bj.s 			page 6


 228              		.loc 1 50 5 is_stmt 1
  51:src/consoleBuffer.cpp **** }
 229              		.loc 1 51 1 is_stmt 0
 230 0190 13050900 		mv	a0,s2
 231 0194 83308101 		ld	ra,24(sp)
 232              		.cfi_restore 1
 233 0198 03340101 		ld	s0,16(sp)
 234              		.cfi_restore 8
 235              		.cfi_def_cfa 2, 32
 236 019c 83348100 		ld	s1,8(sp)
 237              		.cfi_restore 9
 238              	.LVL22:
 239 01a0 03390100 		ld	s2,0(sp)
 240              		.cfi_restore 18
 241              	.LVL23:
 242 01a4 13010102 		addi	sp,sp,32
 243              		.cfi_def_cfa_offset 0
 244 01a8 67800000 		jr	ra
 245              		.cfi_endproc
 246              	.LFE77:
 248              		.align	2
 249              		.globl	_ZN13ConsoleBuffer6getCntEv
 251              	_ZN13ConsoleBuffer6getCntEv:
 252              	.LFB78:
  52:src/consoleBuffer.cpp **** 
  53:src/consoleBuffer.cpp **** int ConsoleBuffer::getCnt() {
 253              		.loc 1 53 29 is_stmt 1
 254              		.cfi_startproc
 255              	.LVL24:
 256 01ac 130101FE 		addi	sp,sp,-32
 257              		.cfi_def_cfa_offset 32
 258 01b0 233C1100 		sd	ra,24(sp)
 259 01b4 23388100 		sd	s0,16(sp)
 260 01b8 23349100 		sd	s1,8(sp)
 261 01bc 23302101 		sd	s2,0(sp)
 262              		.cfi_offset 1, -8
 263              		.cfi_offset 8, -16
 264              		.cfi_offset 9, -24
 265              		.cfi_offset 18, -32
 266 01c0 13040102 		addi	s0,sp,32
 267              		.cfi_def_cfa 8, 0
 268 01c4 93040500 		mv	s1,a0
  54:src/consoleBuffer.cpp ****     mutexHead->wait();
 269              		.loc 1 54 5
 270              		.loc 1 54 20 is_stmt 0
 271 01c8 03358502 		ld	a0,40(a0)
 272              	.LVL25:
 273 01cc 97000000 		call	_ZN3sem4waitEv@plt
 273      E7800000 
 274              	.LVL26:
  55:src/consoleBuffer.cpp ****     mutexTail->wait();
 275              		.loc 1 55 5 is_stmt 1
 276              		.loc 1 55 20 is_stmt 0
 277 01d4 03B50403 		ld	a0,48(s1)
 278 01d8 97000000 		call	_ZN3sem4waitEv@plt
 278      E7800000 
 279              	.LVL27:
GAS LISTING /tmp/ccEJ58Bj.s 			page 7


  56:src/consoleBuffer.cpp ****     int ret;
 280              		.loc 1 56 5 is_stmt 1
  57:src/consoleBuffer.cpp ****     if (tail >= head) {
 281              		.loc 1 57 5
 282              		.loc 1 57 9 is_stmt 0
 283 01e0 83A74401 		lw	a5,20(s1)
 284              		.loc 1 57 17
 285 01e4 03A90401 		lw	s2,16(s1)
 286              		.loc 1 57 5
 287 01e8 63CE2703 		blt	a5,s2,.L8
  58:src/consoleBuffer.cpp ****         ret = tail - head;
 288              		.loc 1 58 9 is_stmt 1
 289              		.loc 1 58 13 is_stmt 0
 290 01ec 3B892741 		subw	s2,a5,s2
 291              	.LVL28:
 292              	.L9:
  59:src/consoleBuffer.cpp ****     } else {
  60:src/consoleBuffer.cpp ****         ret = cap - head + tail;
  61:src/consoleBuffer.cpp ****     }
  62:src/consoleBuffer.cpp **** 
  63:src/consoleBuffer.cpp ****     mutexTail->signal();
 293              		.loc 1 63 5 is_stmt 1
 294              		.loc 1 63 22 is_stmt 0
 295 01f0 03B50403 		ld	a0,48(s1)
 296 01f4 97000000 		call	_ZN3sem6signalEv@plt
 296      E7800000 
 297              	.LVL29:
  64:src/consoleBuffer.cpp ****     mutexHead->signal();
 298              		.loc 1 64 5 is_stmt 1
 299              		.loc 1 64 22 is_stmt 0
 300 01fc 03B58402 		ld	a0,40(s1)
 301 0200 97000000 		call	_ZN3sem6signalEv@plt
 301      E7800000 
 302              	.LVL30:
  65:src/consoleBuffer.cpp **** 
  66:src/consoleBuffer.cpp ****     return ret;
 303              		.loc 1 66 5 is_stmt 1
  67:src/consoleBuffer.cpp **** }
 304              		.loc 1 67 1 is_stmt 0
 305 0208 13050900 		mv	a0,s2
 306 020c 83308101 		ld	ra,24(sp)
 307              		.cfi_remember_state
 308              		.cfi_restore 1
 309 0210 03340101 		ld	s0,16(sp)
 310              		.cfi_restore 8
 311              		.cfi_def_cfa 2, 32
 312 0214 83348100 		ld	s1,8(sp)
 313              		.cfi_restore 9
 314              	.LVL31:
 315 0218 03390100 		ld	s2,0(sp)
 316              		.cfi_restore 18
 317              	.LVL32:
 318 021c 13010102 		addi	sp,sp,32
 319              		.cfi_def_cfa_offset 0
 320 0220 67800000 		jr	ra
 321              	.LVL33:
 322              	.L8:
GAS LISTING /tmp/ccEJ58Bj.s 			page 8


 323              		.cfi_restore_state
  60:src/consoleBuffer.cpp ****     }
 324              		.loc 1 60 9 is_stmt 1
  60:src/consoleBuffer.cpp ****     }
 325              		.loc 1 60 15 is_stmt 0
 326 0224 03A70400 		lw	a4,0(s1)
  60:src/consoleBuffer.cpp ****     }
 327              		.loc 1 60 19
 328 0228 3B092741 		subw	s2,a4,s2
  60:src/consoleBuffer.cpp ****     }
 329              		.loc 1 60 13
 330 022c 3B09F900 		addw	s2,s2,a5
 331 0230 6FF01FFC 		j	.L9
 332              		.cfi_endproc
 333              	.LFE78:
 335              		.align	2
 336              		.globl	_ZN13ConsoleBufferD2Ev
 338              	_ZN13ConsoleBufferD2Ev:
 339              	.LFB74:
  15:src/consoleBuffer.cpp ****     while (getCnt() > 0) {
 340              		.loc 1 15 1 is_stmt 1
 341              		.cfi_startproc
 342              		.cfi_personality 0x9b,DW.ref.__gxx_personality_v0
 343              		.cfi_lsda 0x1b,.LLSDA74
 344              	.LVL34:
 345 0234 130101FE 		addi	sp,sp,-32
 346              		.cfi_def_cfa_offset 32
 347 0238 233C1100 		sd	ra,24(sp)
 348 023c 23388100 		sd	s0,16(sp)
 349 0240 23349100 		sd	s1,8(sp)
 350 0244 23302101 		sd	s2,0(sp)
 351              		.cfi_offset 1, -8
 352              		.cfi_offset 8, -16
 353              		.cfi_offset 9, -24
 354              		.cfi_offset 18, -32
 355 0248 13040102 		addi	s0,sp,32
 356              		.cfi_def_cfa 8, 0
 357 024c 93040500 		mv	s1,a0
 358              	.LVL35:
 359              	.L13:
 360              	.LBB3:
  16:src/consoleBuffer.cpp ****         char c = buffer[head];
 361              		.loc 1 16 5
  16:src/consoleBuffer.cpp ****         char c = buffer[head];
 362              		.loc 1 16 21
  16:src/consoleBuffer.cpp ****         char c = buffer[head];
 363              		.loc 1 16 18 is_stmt 0
 364 0250 13850400 		mv	a0,s1
 365 0254 97000000 		call	_ZN13ConsoleBuffer6getCntEv
 365      E7800000 
 366              	.LVL36:
  16:src/consoleBuffer.cpp ****         char c = buffer[head];
 367              		.loc 1 16 21
 368 025c 635AA002 		blez	a0,.L12
 369              	.LBB4:
  17:src/consoleBuffer.cpp ****         putc(c);
 370              		.loc 1 17 9 is_stmt 1
GAS LISTING /tmp/ccEJ58Bj.s 			page 9


  17:src/consoleBuffer.cpp ****         putc(c);
 371              		.loc 1 17 18 is_stmt 0
 372 0260 83B78400 		ld	a5,8(s1)
  17:src/consoleBuffer.cpp ****         putc(c);
 373              		.loc 1 17 25
 374 0264 03A70401 		lw	a4,16(s1)
  17:src/consoleBuffer.cpp ****         putc(c);
 375              		.loc 1 17 29
 376 0268 B387E700 		add	a5,a5,a4
 377              	.LVL37:
  18:src/consoleBuffer.cpp ****         head = (head + 1) % cap;
 378              		.loc 1 18 9 is_stmt 1
  18:src/consoleBuffer.cpp ****         head = (head + 1) % cap;
 379              		.loc 1 18 13 is_stmt 0
 380 026c 03C50700 		lbu	a0,0(a5)
 381 0270 97000000 		call	_Z4putcc@plt
 381      E7800000 
 382              	.LVL38:
  19:src/consoleBuffer.cpp ****     }
 383              		.loc 1 19 9 is_stmt 1
  19:src/consoleBuffer.cpp ****     }
 384              		.loc 1 19 17 is_stmt 0
 385 0278 83A70401 		lw	a5,16(s1)
  19:src/consoleBuffer.cpp ****     }
 386              		.loc 1 19 22
 387 027c 9B871700 		addiw	a5,a5,1
  19:src/consoleBuffer.cpp ****     }
 388              		.loc 1 19 29
 389 0280 03A70400 		lw	a4,0(s1)
  19:src/consoleBuffer.cpp ****     }
 390              		.loc 1 19 27
 391 0284 BBE7E702 		remw	a5,a5,a4
  19:src/consoleBuffer.cpp ****     }
 392              		.loc 1 19 14
 393 0288 23A8F400 		sw	a5,16(s1)
 394              	.LBE4:
  16:src/consoleBuffer.cpp ****         char c = buffer[head];
 395              		.loc 1 16 5
 396 028c 6FF05FFC 		j	.L13
 397              	.L12:
  22:src/consoleBuffer.cpp ****     delete itemAvailable;
 398              		.loc 1 22 5 is_stmt 1
  22:src/consoleBuffer.cpp ****     delete itemAvailable;
 399              		.loc 1 22 30 is_stmt 0
 400 0290 03B58400 		ld	a0,8(s1)
 401 0294 97000000 		call	_ZN15MemoryAllocator8mem_freeEPv@plt
 401      E7800000 
 402              	.LVL39:
  23:src/consoleBuffer.cpp ****     delete spaceAvailable;
 403              		.loc 1 23 5 is_stmt 1
  23:src/consoleBuffer.cpp ****     delete spaceAvailable;
 404              		.loc 1 23 12 is_stmt 0
 405 029c 03B90402 		ld	s2,32(s1)
  23:src/consoleBuffer.cpp ****     delete spaceAvailable;
 406              		.loc 1 23 25
 407 02a0 630E0900 		beqz	s2,.L14
  23:src/consoleBuffer.cpp ****     delete spaceAvailable;
GAS LISTING /tmp/ccEJ58Bj.s 			page 10


 408              		.loc 1 23 12 discriminator 1
 409 02a4 13050900 		mv	a0,s2
 410 02a8 97000000 		call	_ZN3semD1Ev@plt
 410      E7800000 
 411              	.LVL40:
 412 02b0 13050900 		mv	a0,s2
 413 02b4 97000000 		call	_ZN3semdlEPv@plt
 413      E7800000 
 414              	.LVL41:
 415              	.L14:
  24:src/consoleBuffer.cpp ****     delete mutexTail;
 416              		.loc 1 24 5 is_stmt 1
  24:src/consoleBuffer.cpp ****     delete mutexTail;
 417              		.loc 1 24 12 is_stmt 0
 418 02bc 03B98401 		ld	s2,24(s1)
  24:src/consoleBuffer.cpp ****     delete mutexTail;
 419              		.loc 1 24 26
 420 02c0 630E0900 		beqz	s2,.L15
  24:src/consoleBuffer.cpp ****     delete mutexTail;
 421              		.loc 1 24 12 discriminator 1
 422 02c4 13050900 		mv	a0,s2
 423 02c8 97000000 		call	_ZN3semD1Ev@plt
 423      E7800000 
 424              	.LVL42:
 425 02d0 13050900 		mv	a0,s2
 426 02d4 97000000 		call	_ZN3semdlEPv@plt
 426      E7800000 
 427              	.LVL43:
 428              	.L15:
  25:src/consoleBuffer.cpp ****     delete mutexHead;
 429              		.loc 1 25 5 is_stmt 1
  25:src/consoleBuffer.cpp ****     delete mutexHead;
 430              		.loc 1 25 12 is_stmt 0
 431 02dc 03B90403 		ld	s2,48(s1)
  25:src/consoleBuffer.cpp ****     delete mutexHead;
 432              		.loc 1 25 21
 433 02e0 630E0900 		beqz	s2,.L16
  25:src/consoleBuffer.cpp ****     delete mutexHead;
 434              		.loc 1 25 12 discriminator 1
 435 02e4 13050900 		mv	a0,s2
 436 02e8 97000000 		call	_ZN3semD1Ev@plt
 436      E7800000 
 437              	.LVL44:
 438 02f0 13050900 		mv	a0,s2
 439 02f4 97000000 		call	_ZN3semdlEPv@plt
 439      E7800000 
 440              	.LVL45:
 441              	.L16:
  26:src/consoleBuffer.cpp **** }
 442              		.loc 1 26 5 is_stmt 1
  26:src/consoleBuffer.cpp **** }
 443              		.loc 1 26 12 is_stmt 0
 444 02fc 83B48402 		ld	s1,40(s1)
 445              	.LVL46:
  26:src/consoleBuffer.cpp **** }
 446              		.loc 1 26 21
 447 0300 638E0400 		beqz	s1,.L11
GAS LISTING /tmp/ccEJ58Bj.s 			page 11


  26:src/consoleBuffer.cpp **** }
 448              		.loc 1 26 12 discriminator 1
 449 0304 13850400 		mv	a0,s1
 450 0308 97000000 		call	_ZN3semD1Ev@plt
 450      E7800000 
 451              	.LVL47:
 452 0310 13850400 		mv	a0,s1
 453 0314 97000000 		call	_ZN3semdlEPv@plt
 453      E7800000 
 454              	.LVL48:
 455              	.L11:
 456              	.LBE3:
  27:src/consoleBuffer.cpp **** 
 457              		.loc 1 27 1
 458 031c 83308101 		ld	ra,24(sp)
 459              		.cfi_restore 1
 460 0320 03340101 		ld	s0,16(sp)
 461              		.cfi_restore 8
 462              		.cfi_def_cfa 2, 32
 463 0324 83348100 		ld	s1,8(sp)
 464              		.cfi_restore 9
 465 0328 03390100 		ld	s2,0(sp)
 466              		.cfi_restore 18
 467 032c 13010102 		addi	sp,sp,32
 468              		.cfi_def_cfa_offset 0
 469 0330 67800000 		jr	ra
 470              		.cfi_endproc
 471              	.LFE74:
 472              		.globl	__gxx_personality_v0
 473              		.section	.gcc_except_table,"a",@progbits
 474              	.LLSDA74:
 475 0000 FF       		.byte	0xff
 476 0001 FF       		.byte	0xff
 477 0002 03       		.byte	0x3
 478 0003 00       		.byte	0
 479              		.text
 481              		.globl	_ZN13ConsoleBufferD1Ev
 482              		.set	_ZN13ConsoleBufferD1Ev,_ZN13ConsoleBufferD2Ev
 483              		.align	2
 484              		.globl	_ZN13ConsoleBuffer6isFullEv
 486              	_ZN13ConsoleBuffer6isFullEv:
 487              	.LFB79:
  68:src/consoleBuffer.cpp **** 
  69:src/consoleBuffer.cpp **** bool ConsoleBuffer::isFull(){
 488              		.loc 1 69 29 is_stmt 1
 489              		.cfi_startproc
 490              	.LVL49:
 491 0334 130101FE 		addi	sp,sp,-32
 492              		.cfi_def_cfa_offset 32
 493 0338 233C1100 		sd	ra,24(sp)
 494 033c 23388100 		sd	s0,16(sp)
 495 0340 23349100 		sd	s1,8(sp)
 496 0344 23302101 		sd	s2,0(sp)
 497              		.cfi_offset 1, -8
 498              		.cfi_offset 8, -16
 499              		.cfi_offset 9, -24
 500              		.cfi_offset 18, -32
GAS LISTING /tmp/ccEJ58Bj.s 			page 12


 501 0348 13040102 		addi	s0,sp,32
 502              		.cfi_def_cfa 8, 0
 503 034c 93040500 		mv	s1,a0
  70:src/consoleBuffer.cpp ****     mutexHead->wait();
 504              		.loc 1 70 5
 505              		.loc 1 70 20 is_stmt 0
 506 0350 03358502 		ld	a0,40(a0)
 507              	.LVL50:
 508 0354 97000000 		call	_ZN3sem4waitEv@plt
 508      E7800000 
 509              	.LVL51:
  71:src/consoleBuffer.cpp ****     mutexTail->wait();
 510              		.loc 1 71 5 is_stmt 1
 511              		.loc 1 71 20 is_stmt 0
 512 035c 03B50403 		ld	a0,48(s1)
 513 0360 97000000 		call	_ZN3sem4waitEv@plt
 513      E7800000 
 514              	.LVL52:
  72:src/consoleBuffer.cpp ****     int cnt;
 515              		.loc 1 72 5 is_stmt 1
  73:src/consoleBuffer.cpp ****     if (tail >= head) {
 516              		.loc 1 73 5
 517              		.loc 1 73 9 is_stmt 0
 518 0368 03A54401 		lw	a0,20(s1)
 519              		.loc 1 73 17
 520 036c 03A90401 		lw	s2,16(s1)
 521              		.loc 1 73 5
 522 0370 63422505 		blt	a0,s2,.L20
  74:src/consoleBuffer.cpp ****         cnt = tail - head;
 523              		.loc 1 74 9 is_stmt 1
 524              		.loc 1 74 13 is_stmt 0
 525 0374 3B092541 		subw	s2,a0,s2
 526              	.LVL53:
 527              	.L21:
  75:src/consoleBuffer.cpp ****     } else {
  76:src/consoleBuffer.cpp ****         cnt = cap - head + tail;
  77:src/consoleBuffer.cpp ****     }
  78:src/consoleBuffer.cpp **** 
  79:src/consoleBuffer.cpp ****     mutexTail->signal();
 528              		.loc 1 79 5 is_stmt 1
 529              		.loc 1 79 22 is_stmt 0
 530 0378 03B50403 		ld	a0,48(s1)
 531 037c 97000000 		call	_ZN3sem6signalEv@plt
 531      E7800000 
 532              	.LVL54:
  80:src/consoleBuffer.cpp ****     mutexHead->signal();
 533              		.loc 1 80 5 is_stmt 1
 534              		.loc 1 80 22 is_stmt 0
 535 0384 03B58402 		ld	a0,40(s1)
 536 0388 97000000 		call	_ZN3sem6signalEv@plt
 536      E7800000 
 537              	.LVL55:
  81:src/consoleBuffer.cpp **** 
  82:src/consoleBuffer.cpp ****     return cnt == this->cap;
 538              		.loc 1 82 5 is_stmt 1
 539              		.loc 1 82 25 is_stmt 0
 540 0390 03A50400 		lw	a0,0(s1)
GAS LISTING /tmp/ccEJ58Bj.s 			page 13


 541 0394 33052541 		sub	a0,a0,s2
  83:src/consoleBuffer.cpp **** }
 542              		.loc 1 83 1
 543 0398 13351500 		seqz	a0,a0
 544 039c 83308101 		ld	ra,24(sp)
 545              		.cfi_remember_state
 546              		.cfi_restore 1
 547 03a0 03340101 		ld	s0,16(sp)
 548              		.cfi_restore 8
 549              		.cfi_def_cfa 2, 32
 550 03a4 83348100 		ld	s1,8(sp)
 551              		.cfi_restore 9
 552              	.LVL56:
 553 03a8 03390100 		ld	s2,0(sp)
 554              		.cfi_restore 18
 555              	.LVL57:
 556 03ac 13010102 		addi	sp,sp,32
 557              		.cfi_def_cfa_offset 0
 558 03b0 67800000 		jr	ra
 559              	.LVL58:
 560              	.L20:
 561              		.cfi_restore_state
  76:src/consoleBuffer.cpp ****     }
 562              		.loc 1 76 9 is_stmt 1
  76:src/consoleBuffer.cpp ****     }
 563              		.loc 1 76 15 is_stmt 0
 564 03b4 83A70400 		lw	a5,0(s1)
  76:src/consoleBuffer.cpp ****     }
 565              		.loc 1 76 19
 566 03b8 3B892741 		subw	s2,a5,s2
  76:src/consoleBuffer.cpp ****     }
 567              		.loc 1 76 13
 568 03bc 3B09A900 		addw	s2,s2,a0
 569 03c0 6FF09FFB 		j	.L21
 570              		.cfi_endproc
 571              	.LFE79:
 573              		.align	2
 574              		.globl	_ZN13ConsoleBuffernwEm
 576              	_ZN13ConsoleBuffernwEm:
 577              	.LFB80:
  84:src/consoleBuffer.cpp **** 
  85:src/consoleBuffer.cpp **** 
  86:src/consoleBuffer.cpp **** void *ConsoleBuffer::operator new(size_t size) {
 578              		.loc 1 86 48 is_stmt 1
 579              		.cfi_startproc
 580              	.LVL59:
 581 03c4 130101FF 		addi	sp,sp,-16
 582              		.cfi_def_cfa_offset 16
 583 03c8 23341100 		sd	ra,8(sp)
 584 03cc 23308100 		sd	s0,0(sp)
 585              		.cfi_offset 1, -8
 586              		.cfi_offset 8, -16
 587 03d0 13040101 		addi	s0,sp,16
 588              		.cfi_def_cfa 8, 0
  87:src/consoleBuffer.cpp ****     return MemoryAllocator::mem_alloc(CONVERT_SIZE_TO_BLOCKS(size));
 589              		.loc 1 87 5
 590              		.loc 1 87 39 is_stmt 0
GAS LISTING /tmp/ccEJ58Bj.s 			page 14


 591 03d4 1305F50F 		addi	a0,a0,255
 592              	.LVL60:
 593              		.loc 1 87 38
 594 03d8 13558500 		srli	a0,a0,8
 595              	.LVL61:
 596 03dc 97000000 		call	_ZN15MemoryAllocator9mem_allocEm@plt
 596      E7800000 
 597              	.LVL62:
  88:src/consoleBuffer.cpp **** }
 598              		.loc 1 88 1
 599 03e4 83308100 		ld	ra,8(sp)
 600              		.cfi_restore 1
 601 03e8 03340100 		ld	s0,0(sp)
 602              		.cfi_restore 8
 603              		.cfi_def_cfa 2, 16
 604 03ec 13010101 		addi	sp,sp,16
 605              		.cfi_def_cfa_offset 0
 606 03f0 67800000 		jr	ra
 607              		.cfi_endproc
 608              	.LFE80:
 610              		.align	2
 611              		.globl	_ZN13ConsoleBufferdlEPv
 613              	_ZN13ConsoleBufferdlEPv:
 614              	.LFB81:
  89:src/consoleBuffer.cpp **** void ConsoleBuffer::operator delete(void *ptr) {
 615              		.loc 1 89 48 is_stmt 1
 616              		.cfi_startproc
 617              	.LVL63:
 618 03f4 130101FF 		addi	sp,sp,-16
 619              		.cfi_def_cfa_offset 16
 620 03f8 23341100 		sd	ra,8(sp)
 621 03fc 23308100 		sd	s0,0(sp)
 622              		.cfi_offset 1, -8
 623              		.cfi_offset 8, -16
 624 0400 13040101 		addi	s0,sp,16
 625              		.cfi_def_cfa 8, 0
  90:src/consoleBuffer.cpp ****     MemoryAllocator::mem_free(ptr);
 626              		.loc 1 90 5
 627              		.loc 1 90 30 is_stmt 0
 628 0404 97000000 		call	_ZN15MemoryAllocator8mem_freeEPv@plt
 628      E7800000 
 629              	.LVL64:
  91:src/consoleBuffer.cpp **** }
 630              		.loc 1 91 1
 631 040c 83308100 		ld	ra,8(sp)
 632              		.cfi_restore 1
 633 0410 03340100 		ld	s0,0(sp)
 634              		.cfi_restore 8
 635              		.cfi_def_cfa 2, 16
 636 0414 13010101 		addi	sp,sp,16
 637              		.cfi_def_cfa_offset 0
 638 0418 67800000 		jr	ra
 639              		.cfi_endproc
 640              	.LFE81:
 642              		.align	2
 643              		.globl	_ZN13ConsoleBuffernaEm
 645              	_ZN13ConsoleBuffernaEm:
GAS LISTING /tmp/ccEJ58Bj.s 			page 15


 646              	.LFB82:
  92:src/consoleBuffer.cpp **** void *ConsoleBuffer::operator new[](size_t size) {
 647              		.loc 1 92 50 is_stmt 1
 648              		.cfi_startproc
 649              	.LVL65:
 650 041c 130101FF 		addi	sp,sp,-16
 651              		.cfi_def_cfa_offset 16
 652 0420 23341100 		sd	ra,8(sp)
 653 0424 23308100 		sd	s0,0(sp)
 654              		.cfi_offset 1, -8
 655              		.cfi_offset 8, -16
 656 0428 13040101 		addi	s0,sp,16
 657              		.cfi_def_cfa 8, 0
  93:src/consoleBuffer.cpp ****     return MemoryAllocator::mem_alloc(CONVERT_SIZE_TO_BLOCKS(size));
 658              		.loc 1 93 5
 659              		.loc 1 93 39 is_stmt 0
 660 042c 1305F50F 		addi	a0,a0,255
 661              	.LVL66:
 662              		.loc 1 93 38
 663 0430 13558500 		srli	a0,a0,8
 664              	.LVL67:
 665 0434 97000000 		call	_ZN15MemoryAllocator9mem_allocEm@plt
 665      E7800000 
 666              	.LVL68:
  94:src/consoleBuffer.cpp **** }
 667              		.loc 1 94 1
 668 043c 83308100 		ld	ra,8(sp)
 669              		.cfi_restore 1
 670 0440 03340100 		ld	s0,0(sp)
 671              		.cfi_restore 8
 672              		.cfi_def_cfa 2, 16
 673 0444 13010101 		addi	sp,sp,16
 674              		.cfi_def_cfa_offset 0
 675 0448 67800000 		jr	ra
 676              		.cfi_endproc
 677              	.LFE82:
 679              		.align	2
 680              		.globl	_ZN13ConsoleBufferdaEPv
 682              	_ZN13ConsoleBufferdaEPv:
 683              	.LFB83:
  95:src/consoleBuffer.cpp **** void ConsoleBuffer::operator delete[](void *ptr) {
 684              		.loc 1 95 50 is_stmt 1
 685              		.cfi_startproc
 686              	.LVL69:
 687 044c 130101FF 		addi	sp,sp,-16
 688              		.cfi_def_cfa_offset 16
 689 0450 23341100 		sd	ra,8(sp)
 690 0454 23308100 		sd	s0,0(sp)
 691              		.cfi_offset 1, -8
 692              		.cfi_offset 8, -16
 693 0458 13040101 		addi	s0,sp,16
 694              		.cfi_def_cfa 8, 0
  96:src/consoleBuffer.cpp ****     MemoryAllocator::mem_free(ptr);
 695              		.loc 1 96 5
 696              		.loc 1 96 30 is_stmt 0
 697 045c 97000000 		call	_ZN15MemoryAllocator8mem_freeEPv@plt
 697      E7800000 
GAS LISTING /tmp/ccEJ58Bj.s 			page 16


 698              	.LVL70:
  97:src/consoleBuffer.cpp **** }...
 699              		.loc 1 97 1
 700 0464 83308100 		ld	ra,8(sp)
 701              		.cfi_restore 1
 702 0468 03340100 		ld	s0,0(sp)
 703              		.cfi_restore 8
 704              		.cfi_def_cfa 2, 16
 705 046c 13010101 		addi	sp,sp,16
 706              		.cfi_def_cfa_offset 0
 707 0470 67800000 		jr	ra
 708              		.cfi_endproc
 709              	.LFE83:
 711              	.Letext0:
 712              		.file 2 "src/../h/../h/../lib/hw.h"
 713              		.file 3 "src/../h/../h/tcb.hpp"
 714              		.file 4 "src/../h/../h/../h/memoryAllocator.hpp"
 715              		.file 5 "src/../h/../h/../h/../h/threadList.hpp"
 716              		.file 6 "src/../h/../h/../h/sem.hpp"
 717              		.file 7 "src/../h/../h/sleepingThreadList.hpp"
 718              		.file 8 "src/../h/../h/syscall_c.hpp"
 719              		.file 9 "src/../h/consoleBuffer.hpp"
 4709              		.align	3
 4712              	DW.ref.__gxx_personality_v0:
 4713 0000 00000000 		.dword	__gxx_personality_v0
 4713      00000000 
 4714              		.ident	"GCC: (Ubuntu 9.4.0-1ubuntu1~20.04) 9.4.0"
 4715              		.section	.note.GNU-stack,"",@progbits
GAS LISTING /tmp/ccEJ58Bj.s 			page 17

