GAS LISTING /tmp/cc3083Sy.s 			page 1


   1              		.file	"memoryAllocator.cpp"
   2              		.option pic
   3              		.option norelax
   4              		.text
   5              	.Ltext0:
   6              		.align	2
   7              		.globl	_ZN15MemoryAllocator9mem_allocEm
   9              	_ZN15MemoryAllocator9mem_allocEm:
  10              	.LFB0:
  11              		.file 1 "src/memoryAllocator.cpp"
   1:src/memoryAllocator.cpp **** #include "../lib/hw.h"
   2:src/memoryAllocator.cpp **** #include "../h/memoryAllocator.hpp"
   3:src/memoryAllocator.cpp **** 
   4:src/memoryAllocator.cpp **** BlockHeader* MemoryAllocator::freeHead = nullptr;
   5:src/memoryAllocator.cpp **** BlockHeader* MemoryAllocator::allocatedHead = nullptr;
   6:src/memoryAllocator.cpp **** 
   7:src/memoryAllocator.cpp **** void *MemoryAllocator::mem_alloc(size_t size) {
  12              		.loc 1 7 47
  13              		.cfi_startproc
  14              	.LVL0:
  15 0000 130101FF 		addi	sp,sp,-16
  16              		.cfi_def_cfa_offset 16
  17 0004 23348100 		sd	s0,8(sp)
  18              		.cfi_offset 8, -8
  19 0008 13040101 		addi	s0,sp,16
  20              		.cfi_def_cfa 8, 0
  21 000c 13070500 		mv	a4,a0
   8:src/memoryAllocator.cpp **** 
   9:src/memoryAllocator.cpp ****     BlockHeader* current = freeHead;
  22              		.loc 1 9 5
  23              		.loc 1 9 18 is_stmt 0
  24 0010 17050000 		ld	a0,.LANCHOR0
  24      03350500 
  25              	.LVL1:
  26              	.L3:
  10:src/memoryAllocator.cpp ****     // treba da pronadjem dovoljno velik slobodni fragment
  11:src/memoryAllocator.cpp ****     while(current){
  27              		.loc 1 11 5 is_stmt 1
  28              		.loc 1 11 11
  29 0018 630A0500 		beqz	a0,.L2
  12:src/memoryAllocator.cpp ****         if(current->size < size) current = current->next;
  30              		.loc 1 12 9
  31              		.loc 1 12 21 is_stmt 0
  32 001c 83370500 		ld	a5,0(a0)
  33              		.loc 1 12 9
  34 0020 63F6E700 		bgeu	a5,a4,.L2
  35              		.loc 1 12 34 is_stmt 1 discriminator 1
  36              		.loc 1 12 42 is_stmt 0 discriminator 1
  37 0024 03350501 		ld	a0,16(a0)
  38              	.LVL2:
  11:src/memoryAllocator.cpp ****         if(current->size < size) current = current->next;
  39              		.loc 1 11 5 discriminator 1
  40 0028 6FF01FFF 		j	.L3
  41              	.L2:
  13:src/memoryAllocator.cpp ****         else break;
  14:src/memoryAllocator.cpp ****     }
  15:src/memoryAllocator.cpp **** 
GAS LISTING /tmp/cc3083Sy.s 			page 2


  16:src/memoryAllocator.cpp ****     // there is no free space, obuhvata slucaj i ako nema freeHead, tjs = nullptr
  17:src/memoryAllocator.cpp ****     if(!current){
  42              		.loc 1 17 5 is_stmt 1
  43 002c 6306050A 		beqz	a0,.L1
  18:src/memoryAllocator.cpp ****         return nullptr;
  19:src/memoryAllocator.cpp ****     }
  20:src/memoryAllocator.cpp **** 
  21:src/memoryAllocator.cpp ****     size_t remainingFreeSize = current->size - size; // number of free blocks remaining
  44              		.loc 1 21 5
  45              		.loc 1 21 41 is_stmt 0
  46 0030 83370500 		ld	a5,0(a0)
  47              		.loc 1 21 12
  48 0034 B386E740 		sub	a3,a5,a4
  49              	.LVL3:
  22:src/memoryAllocator.cpp ****     size_t allocatingSize = size; // u slucaju da ostane memorije koja ne moze da se prati sa freeB
  50              		.loc 1 22 5 is_stmt 1
  23:src/memoryAllocator.cpp ****     if(remainingFreeSize < BLOCK_HEADER_SIZE){ // if there is no enough free blocks for new BlockHe
  51              		.loc 1 23 5
  52              	.LBB2:
  53 0038 639CE702 		bne	a5,a4,.L5
  24:src/memoryAllocator.cpp ****         allocatingSize += remainingFreeSize; // npr ako je BLOCK_HEADER_SIZE = 3, a ostalo je 2 slo
  54              		.loc 1 24 9
  55              	.LVL4:
  25:src/memoryAllocator.cpp ****                                             // da alociram
  26:src/memoryAllocator.cpp ****         //preulancaj free listu
  27:src/memoryAllocator.cpp ****         if(current->prev){
  56              		.loc 1 27 9
  57              		.loc 1 27 21 is_stmt 0
  58 003c 03378500 		ld	a4,8(a0)
  59              	.LVL5:
  60              		.loc 1 27 9
  61 0040 63000702 		beqz	a4,.L6
  28:src/memoryAllocator.cpp ****             current->prev->next = current->next;
  62              		.loc 1 28 13 is_stmt 1
  63              		.loc 1 28 44 is_stmt 0
  64 0044 83360501 		ld	a3,16(a0)
  65              	.LVL6:
  66              		.loc 1 28 33
  67 0048 2338D700 		sd	a3,16(a4)
  68              	.L7:
  29:src/memoryAllocator.cpp ****         } else{ //znaci da je ovo bila glava
  30:src/memoryAllocator.cpp ****             freeHead = current->next; // znaci ako je current bio poslednji, freeHead ce bude null
  31:src/memoryAllocator.cpp ****         }
  32:src/memoryAllocator.cpp ****         if(current->next) current->next->prev = current->prev;
  69              		.loc 1 32 9 is_stmt 1
  70              		.loc 1 32 21 is_stmt 0
  71 004c 03370501 		ld	a4,16(a0)
  72              		.loc 1 32 9
  73 0050 63000706 		beqz	a4,.L8
  74              		.loc 1 32 27 is_stmt 1 discriminator 1
  75              		.loc 1 32 58 is_stmt 0 discriminator 1
  76 0054 83368500 		ld	a3,8(a0)
  77              		.loc 1 32 47 discriminator 1
  78 0058 2334D700 		sd	a3,8(a4)
  79 005c 6F004005 		j	.L8
  80              	.LVL7:
  81              	.L6:
GAS LISTING /tmp/cc3083Sy.s 			page 3


  30:src/memoryAllocator.cpp ****         }
  82              		.loc 1 30 13 is_stmt 1
  30:src/memoryAllocator.cpp ****         }
  83              		.loc 1 30 33 is_stmt 0
  84 0060 03370501 		ld	a4,16(a0)
  30:src/memoryAllocator.cpp ****         }
  85              		.loc 1 30 22
  86 0064 97060000 		sd	a4,.LANCHOR0,a3
  86      23B0E600 
  87              	.LVL8:
  88 006c 6FF01FFE 		j	.L7
  89              	.LVL9:
  90              	.L5:
  91              	.LBB3:
  33:src/memoryAllocator.cpp ****     } else{
  34:src/memoryAllocator.cpp ****         // napravi novi blok
  35:src/memoryAllocator.cpp ****         BlockHeader* newFreeBlock = (BlockHeader*)((char*)current + (size+BLOCK_HEADER_SIZE)*MEM_BL
  92              		.loc 1 35 9 is_stmt 1
  93              		.loc 1 35 74 is_stmt 0
  94 0070 93071700 		addi	a5,a4,1
  95              		.loc 1 35 93
  96 0074 93978700 		slli	a5,a5,8
  97              		.loc 1 35 22
  98 0078 B307F500 		add	a5,a0,a5
  99              	.LVL10:
  36:src/memoryAllocator.cpp ****                                                                 // zbog blockheadera za pracenje za
  37:src/memoryAllocator.cpp ****         // if it is head
  38:src/memoryAllocator.cpp ****         if(!current->prev){
 100              		.loc 1 38 9 is_stmt 1
 101              		.loc 1 38 22 is_stmt 0
 102 007c 03368500 		ld	a2,8(a0)
 103              		.loc 1 38 9
 104 0080 63020606 		beqz	a2,.L18
  39:src/memoryAllocator.cpp ****             freeHead = newFreeBlock;
  40:src/memoryAllocator.cpp ****         }else{
  41:src/memoryAllocator.cpp ****             current->prev->next = newFreeBlock;
 105              		.loc 1 41 13 is_stmt 1
 106              		.loc 1 41 33 is_stmt 0
 107 0084 2338F600 		sd	a5,16(a2)
 108              	.L10:
  42:src/memoryAllocator.cpp ****         }
  43:src/memoryAllocator.cpp ****         if(current->next){
 109              		.loc 1 43 9 is_stmt 1
 110              		.loc 1 43 21 is_stmt 0
 111 0088 03360501 		ld	a2,16(a0)
 112              		.loc 1 43 9
 113 008c 63040600 		beqz	a2,.L11
  44:src/memoryAllocator.cpp ****             current->next->prev = newFreeBlock; // ulancaj sledeci u listi sa novim
 114              		.loc 1 44 13 is_stmt 1
 115              		.loc 1 44 33 is_stmt 0
 116 0090 2334F600 		sd	a5,8(a2)
 117              	.L11:
  45:src/memoryAllocator.cpp ****         }
  46:src/memoryAllocator.cpp ****         newFreeBlock->prev = current->prev;
 118              		.loc 1 46 9 is_stmt 1
 119              		.loc 1 46 39 is_stmt 0
 120 0094 03368500 		ld	a2,8(a0)
GAS LISTING /tmp/cc3083Sy.s 			page 4


 121              		.loc 1 46 28
 122 0098 23B4C700 		sd	a2,8(a5)
  47:src/memoryAllocator.cpp ****         newFreeBlock->next = current->next;
 123              		.loc 1 47 9 is_stmt 1
 124              		.loc 1 47 39 is_stmt 0
 125 009c 03360501 		ld	a2,16(a0)
 126              		.loc 1 47 28
 127 00a0 23B8C700 		sd	a2,16(a5)
  48:src/memoryAllocator.cpp ****         newFreeBlock->size = remainingFreeSize - BLOCK_HEADER_SIZE; // -BLOCK_HEADER_SIZE zbog novi
 128              		.loc 1 48 9 is_stmt 1
 129              		.loc 1 48 48 is_stmt 0
 130 00a4 9386F6FF 		addi	a3,a3,-1
 131              	.LVL11:
 132              		.loc 1 48 28
 133 00a8 23B0D700 		sd	a3,0(a5)
 134              	.LBE3:
 135              	.LBE2:
  22:src/memoryAllocator.cpp ****     if(remainingFreeSize < BLOCK_HEADER_SIZE){ // if there is no enough free blocks for new BlockHe
 136              		.loc 1 22 12
 137 00ac 93070700 		mv	a5,a4
 138              	.LVL12:
 139              	.L8:
  49:src/memoryAllocator.cpp ****     }
  50:src/memoryAllocator.cpp **** 
  51:src/memoryAllocator.cpp ****     // header za free blokove sad koristimo za alociran blok, prati velicina alocirane momrije, pre
  52:src/memoryAllocator.cpp ****     BlockHeader* newAllocatedBlock = current;
 140              		.loc 1 52 5 is_stmt 1
  53:src/memoryAllocator.cpp ****     newAllocatedBlock->size = allocatingSize;
 141              		.loc 1 53 5
 142              		.loc 1 53 29 is_stmt 0
 143 00b0 2330F500 		sd	a5,0(a0)
  54:src/memoryAllocator.cpp ****     if(!allocatedHead) {
 144              		.loc 1 54 5 is_stmt 1
 145              	.LBB5:
 146              		.loc 1 54 8 is_stmt 0
 147 00b4 97070000 		ld	a5,.LANCHOR0+8
 147      83B70700 
 148              	.LVL13:
 149              		.loc 1 54 5
 150 00bc 638A0702 		beqz	a5,.L19
 151              	.LBB6:
  55:src/memoryAllocator.cpp ****         allocatedHead = newAllocatedBlock;
  56:src/memoryAllocator.cpp ****         newAllocatedBlock->prev = nullptr;
  57:src/memoryAllocator.cpp ****         newAllocatedBlock->next = nullptr;
  58:src/memoryAllocator.cpp ****     }else {
  59:src/memoryAllocator.cpp ****         BlockHeader *currAllocated = allocatedHead;
 152              		.loc 1 59 9 is_stmt 1
 153              	.LVL14:
  60:src/memoryAllocator.cpp ****         if(currAllocated > newAllocatedBlock){
 154              		.loc 1 60 9
 155 00c0 6372F504 		bleu	a5,a0,.L14
  61:src/memoryAllocator.cpp ****             newAllocatedBlock->next = allocatedHead;
 156              		.loc 1 61 13
 157              		.loc 1 61 37 is_stmt 0
 158 00c4 2338F500 		sd	a5,16(a0)
  62:src/memoryAllocator.cpp ****             allocatedHead->prev = newAllocatedBlock;
 159              		.loc 1 62 13 is_stmt 1
GAS LISTING /tmp/cc3083Sy.s 			page 5


 160              		.loc 1 62 33 is_stmt 0
 161 00c8 23B4A700 		sd	a0,8(a5)
 162              	.LVL15:
  63:src/memoryAllocator.cpp ****             allocatedHead = newAllocatedBlock;
 163              		.loc 1 63 13 is_stmt 1
 164              		.loc 1 63 27 is_stmt 0
 165 00cc 97070000 		sd	a0,.LANCHOR0+8,a5
 165      23B0A700 
 166              	.LVL16:
 167              	.L13:
 168              	.LBE6:
 169              	.LBE5:
  64:src/memoryAllocator.cpp ****         }else{
  65:src/memoryAllocator.cpp ****             for ( ;(currAllocated->next) && (currAllocated->next < newAllocatedBlock); currAllocate
  66:src/memoryAllocator.cpp ****             if (currAllocated->next) {
  67:src/memoryAllocator.cpp ****                 currAllocated->next->prev = newAllocatedBlock;
  68:src/memoryAllocator.cpp ****             }
  69:src/memoryAllocator.cpp ****             newAllocatedBlock->next = currAllocated->next;
  70:src/memoryAllocator.cpp ****             currAllocated->next = newAllocatedBlock;
  71:src/memoryAllocator.cpp ****             newAllocatedBlock->prev = currAllocated;
  72:src/memoryAllocator.cpp ****         }
  73:src/memoryAllocator.cpp ****     }
  74:src/memoryAllocator.cpp **** 
  75:src/memoryAllocator.cpp ****     return (char*)newAllocatedBlock + BLOCK_HEADER_SIZE*MEM_BLOCK_SIZE; // + da preskoci header
 170              		.loc 1 75 5 is_stmt 1
 171              		.loc 1 75 57 is_stmt 0
 172 00d4 13050510 		addi	a0,a0,256
 173              	.LVL17:
 174              	.L1:
  76:src/memoryAllocator.cpp **** }
 175              		.loc 1 76 1
 176 00d8 03348100 		ld	s0,8(sp)
 177              		.cfi_remember_state
 178              		.cfi_restore 8
 179              		.cfi_def_cfa 2, 16
 180 00dc 13010101 		addi	sp,sp,16
 181              		.cfi_def_cfa_offset 0
 182 00e0 67800000 		jr	ra
 183              	.LVL18:
 184              	.L18:
 185              		.cfi_restore_state
 186              	.LBB8:
 187              	.LBB4:
  39:src/memoryAllocator.cpp ****         }else{
 188              		.loc 1 39 13 is_stmt 1
  39:src/memoryAllocator.cpp ****         }else{
 189              		.loc 1 39 22 is_stmt 0
 190 00e4 17060000 		sd	a5,.LANCHOR0,a2
 190      2330F600 
 191 00ec 6FF0DFF9 		j	.L10
 192              	.LVL19:
 193              	.L19:
 194              	.LBE4:
 195              	.LBE8:
 196              	.LBB9:
  55:src/memoryAllocator.cpp ****         newAllocatedBlock->prev = nullptr;
 197              		.loc 1 55 9 is_stmt 1
GAS LISTING /tmp/cc3083Sy.s 			page 6


  55:src/memoryAllocator.cpp ****         newAllocatedBlock->prev = nullptr;
 198              		.loc 1 55 23 is_stmt 0
 199 00f0 97070000 		sd	a0,.LANCHOR0+8,a5
 199      23B0A700 
 200              	.LVL20:
  56:src/memoryAllocator.cpp ****         newAllocatedBlock->next = nullptr;
 201              		.loc 1 56 9 is_stmt 1
  56:src/memoryAllocator.cpp ****         newAllocatedBlock->next = nullptr;
 202              		.loc 1 56 33 is_stmt 0
 203 00f8 23340500 		sd	zero,8(a0)
  57:src/memoryAllocator.cpp ****     }else {
 204              		.loc 1 57 9 is_stmt 1
  57:src/memoryAllocator.cpp ****     }else {
 205              		.loc 1 57 33 is_stmt 0
 206 00fc 23380500 		sd	zero,16(a0)
 207 0100 6FF05FFD 		j	.L13
 208              	.LVL21:
 209              	.L14:
 210              	.LBB7:
  65:src/memoryAllocator.cpp ****             if (currAllocated->next) {
 211              		.loc 1 65 13 is_stmt 1 discriminator 3
  65:src/memoryAllocator.cpp ****             if (currAllocated->next) {
 212              		.loc 1 65 42 discriminator 3
 213 0104 13870700 		mv	a4,a5
  65:src/memoryAllocator.cpp ****             if (currAllocated->next) {
 214              		.loc 1 65 36 is_stmt 0 discriminator 3
 215 0108 83B70701 		ld	a5,16(a5)
 216              	.LVL22:
  65:src/memoryAllocator.cpp ****             if (currAllocated->next) {
 217              		.loc 1 65 42 discriminator 3
 218 010c 63840700 		beqz	a5,.L15
  65:src/memoryAllocator.cpp ****             if (currAllocated->next) {
 219              		.loc 1 65 42 discriminator 1
 220 0110 E3EAA7FE 		bltu	a5,a0,.L14
 221              	.L15:
  66:src/memoryAllocator.cpp ****                 currAllocated->next->prev = newAllocatedBlock;
 222              		.loc 1 66 13 is_stmt 1
 223 0114 63840700 		beqz	a5,.L16
  67:src/memoryAllocator.cpp ****             }
 224              		.loc 1 67 17
  67:src/memoryAllocator.cpp ****             }
 225              		.loc 1 67 43 is_stmt 0
 226 0118 23B4A700 		sd	a0,8(a5)
 227              	.LVL23:
 228              	.L16:
  69:src/memoryAllocator.cpp ****             currAllocated->next = newAllocatedBlock;
 229              		.loc 1 69 13 is_stmt 1
  69:src/memoryAllocator.cpp ****             currAllocated->next = newAllocatedBlock;
 230              		.loc 1 69 54 is_stmt 0
 231 011c 83370701 		ld	a5,16(a4)
  69:src/memoryAllocator.cpp ****             currAllocated->next = newAllocatedBlock;
 232              		.loc 1 69 37
 233 0120 2338F500 		sd	a5,16(a0)
  70:src/memoryAllocator.cpp ****             newAllocatedBlock->prev = currAllocated;
 234              		.loc 1 70 13 is_stmt 1
  70:src/memoryAllocator.cpp ****             newAllocatedBlock->prev = currAllocated;
 235              		.loc 1 70 33 is_stmt 0
GAS LISTING /tmp/cc3083Sy.s 			page 7


 236 0124 2338A700 		sd	a0,16(a4)
  71:src/memoryAllocator.cpp ****         }
 237              		.loc 1 71 13 is_stmt 1
  71:src/memoryAllocator.cpp ****         }
 238              		.loc 1 71 37 is_stmt 0
 239 0128 2334E500 		sd	a4,8(a0)
 240 012c 6FF09FFA 		j	.L13
 241              	.LBE7:
 242              	.LBE9:
 243              		.cfi_endproc
 244              	.LFE0:
 246              		.align	2
 247              		.globl	_ZN15MemoryAllocator9tryToJoinEP11BlockHeader
 249              	_ZN15MemoryAllocator9tryToJoinEP11BlockHeader:
 250              	.LFB2:
  77:src/memoryAllocator.cpp **** 
  78:src/memoryAllocator.cpp **** int MemoryAllocator::mem_free(void* ptr) {
  79:src/memoryAllocator.cpp **** 
  80:src/memoryAllocator.cpp ****     if(!allocatedHead) return -1; // nijedan blok nije alociran
  81:src/memoryAllocator.cpp ****     if(ptr == nullptr || ptr < HEAP_START_ADDR || ptr > HEAP_END_ADDR) return -2; // los prosledjen
  82:src/memoryAllocator.cpp **** 
  83:src/memoryAllocator.cpp ****     BlockHeader* current = allocatedHead;
  84:src/memoryAllocator.cpp ****     // nadji odgovarajuci header za alocirane
  85:src/memoryAllocator.cpp ****     for(; (current->next) && (current->next < ptr); current = current->next);
  86:src/memoryAllocator.cpp ****     if((char*)current != ((char*)ptr - BLOCK_HEADER_SIZE*MEM_BLOCK_SIZE)) return -3; // los pokaziv
  87:src/memoryAllocator.cpp **** 
  88:src/memoryAllocator.cpp ****     // izbaci alociran blok iz liste alociranih
  89:src/memoryAllocator.cpp ****     if(!current->prev) allocatedHead = current->next;
  90:src/memoryAllocator.cpp ****     else current->prev->next = current->next;
  91:src/memoryAllocator.cpp ****     if(current->next) current->next->prev = current->prev;
  92:src/memoryAllocator.cpp **** 
  93:src/memoryAllocator.cpp ****     // nadji odgovarajuci header za free
  94:src/memoryAllocator.cpp ****     // Posto je current zaglavlje, ne mora da pravim novo
  95:src/memoryAllocator.cpp ****     if(!freeHead){
  96:src/memoryAllocator.cpp ****         freeHead = current;
  97:src/memoryAllocator.cpp ****         current->prev = nullptr;
  98:src/memoryAllocator.cpp ****         current->next = nullptr;
  99:src/memoryAllocator.cpp ****     } else if(current < freeHead){
 100:src/memoryAllocator.cpp ****         freeHead->prev = current;
 101:src/memoryAllocator.cpp ****         current->next = freeHead;
 102:src/memoryAllocator.cpp ****         freeHead = current;
 103:src/memoryAllocator.cpp ****         current->prev = nullptr;
 104:src/memoryAllocator.cpp ****         tryToJoin(current);
 105:src/memoryAllocator.cpp ****     } else{
 106:src/memoryAllocator.cpp ****         BlockHeader* currentFree = freeHead;
 107:src/memoryAllocator.cpp ****         for(; (currentFree->next) && (currentFree->next < current); currentFree = currentFree->next
 108:src/memoryAllocator.cpp **** 
 109:src/memoryAllocator.cpp ****         current->prev = currentFree;
 110:src/memoryAllocator.cpp ****         current->next = currentFree->next;
 111:src/memoryAllocator.cpp ****         currentFree->next = current;
 112:src/memoryAllocator.cpp ****         if(current->next) current->next->prev = current;
 113:src/memoryAllocator.cpp ****         tryToJoin(current); // ce proba da spoji current (koji je mozda spojen sa cirrefree) sa cur
 114:src/memoryAllocator.cpp ****         tryToJoin(currentFree); // ce proba da spoji sa current
 115:src/memoryAllocator.cpp ****         // tryToJoin mora da ide ovim redom, jer ako se prva dva spoje,
 116:src/memoryAllocator.cpp ****         // referenca na drugi ce nestane i onda imamo problem, ovako referenca sto posto ostaje
 117:src/memoryAllocator.cpp ****         // ne bitno dal je spojeno ili ne
 118:src/memoryAllocator.cpp ****     }
GAS LISTING /tmp/cc3083Sy.s 			page 8


 119:src/memoryAllocator.cpp ****     return 0;
 120:src/memoryAllocator.cpp **** }
 121:src/memoryAllocator.cpp **** 
 122:src/memoryAllocator.cpp **** // probaj da spojis sa sledecim praznim blokom
 123:src/memoryAllocator.cpp **** void MemoryAllocator::tryToJoin(BlockHeader* current) {
 251              		.loc 1 123 55 is_stmt 1
 252              		.cfi_startproc
 253              	.LVL24:
 254 0130 130101FF 		addi	sp,sp,-16
 255              		.cfi_def_cfa_offset 16
 256 0134 23348100 		sd	s0,8(sp)
 257              		.cfi_offset 8, -8
 258 0138 13040101 		addi	s0,sp,16
 259              		.cfi_def_cfa 8, 0
 124:src/memoryAllocator.cpp ****     if(current->next && ((char*)current + current->size*MEM_BLOCK_SIZE +  BLOCK_HEADER_SIZE*MEM_BLO
 260              		.loc 1 124 5
 261              		.loc 1 124 17 is_stmt 0
 262 013c 03370501 		ld	a4,16(a0)
 263              		.loc 1 124 5
 264 0140 630C0700 		beqz	a4,.L20
 265              		.loc 1 124 52 discriminator 1
 266 0144 83360500 		ld	a3,0(a0)
 267              		.loc 1 124 72 discriminator 1
 268 0148 93871600 		addi	a5,a3,1
 269 014c 93978700 		slli	a5,a5,8
 270 0150 B307F500 		add	a5,a0,a5
 271              		.loc 1 124 22 discriminator 1
 272 0154 6308F700 		beq	a4,a5,.L23
 273              	.L20:
 125:src/memoryAllocator.cpp ****     == (char*)current->next)){
 126:src/memoryAllocator.cpp ****         current->size += current->next->size + BLOCK_HEADER_SIZE; // BlockHeader jer ce ovde da se 
 127:src/memoryAllocator.cpp ****         current->next = current->next->next;
 128:src/memoryAllocator.cpp ****         if(current->next) current->next->prev = current;
 129:src/memoryAllocator.cpp ****     }
 130:src/memoryAllocator.cpp **** }
 274              		.loc 1 130 1
 275 0158 03348100 		ld	s0,8(sp)
 276              		.cfi_remember_state
 277              		.cfi_restore 8
 278              		.cfi_def_cfa 2, 16
 279 015c 13010101 		addi	sp,sp,16
 280              		.cfi_def_cfa_offset 0
 281 0160 67800000 		jr	ra
 282              	.L23:
 283              		.cfi_restore_state
 126:src/memoryAllocator.cpp ****         current->next = current->next->next;
 284              		.loc 1 126 9 is_stmt 1
 126:src/memoryAllocator.cpp ****         current->next = current->next->next;
 285              		.loc 1 126 41 is_stmt 0
 286 0164 83370700 		ld	a5,0(a4)
 126:src/memoryAllocator.cpp ****         current->next = current->next->next;
 287              		.loc 1 126 23
 288 0168 B386F600 		add	a3,a3,a5
 289 016c 93861600 		addi	a3,a3,1
 290 0170 2330D500 		sd	a3,0(a0)
 127:src/memoryAllocator.cpp ****         if(current->next) current->next->prev = current;
 291              		.loc 1 127 9 is_stmt 1
GAS LISTING /tmp/cc3083Sy.s 			page 9


 127:src/memoryAllocator.cpp ****         if(current->next) current->next->prev = current;
 292              		.loc 1 127 40 is_stmt 0
 293 0174 83370701 		ld	a5,16(a4)
 127:src/memoryAllocator.cpp ****         if(current->next) current->next->prev = current;
 294              		.loc 1 127 23
 295 0178 2338F500 		sd	a5,16(a0)
 128:src/memoryAllocator.cpp ****     }
 296              		.loc 1 128 9 is_stmt 1
 297 017c E38E07FC 		beqz	a5,.L20
 128:src/memoryAllocator.cpp ****     }
 298              		.loc 1 128 27 discriminator 1
 128:src/memoryAllocator.cpp ****     }
 299              		.loc 1 128 47 is_stmt 0 discriminator 1
 300 0180 23B4A700 		sd	a0,8(a5)
 301              		.loc 1 130 1 discriminator 1
 302 0184 6FF05FFD 		j	.L20
 303              		.cfi_endproc
 304              	.LFE2:
 306              		.align	2
 307              		.globl	_ZN15MemoryAllocator8mem_freeEPv
 309              	_ZN15MemoryAllocator8mem_freeEPv:
 310              	.LFB1:
  78:src/memoryAllocator.cpp **** 
 311              		.loc 1 78 42 is_stmt 1
 312              		.cfi_startproc
 313              	.LVL25:
  80:src/memoryAllocator.cpp ****     if(ptr == nullptr || ptr < HEAP_START_ADDR || ptr > HEAP_END_ADDR) return -2; // los prosledjen
 314              		.loc 1 80 5
  80:src/memoryAllocator.cpp ****     if(ptr == nullptr || ptr < HEAP_START_ADDR || ptr > HEAP_END_ADDR) return -2; // los prosledjen
 315              		.loc 1 80 8 is_stmt 0
 316 0188 97070000 		ld	a5,.LANCHOR0+8
 316      83B70700 
  80:src/memoryAllocator.cpp ****     if(ptr == nullptr || ptr < HEAP_START_ADDR || ptr > HEAP_END_ADDR) return -2; // los prosledjen
 317              		.loc 1 80 5
 318 0190 63820712 		beqz	a5,.L35
 319 0194 13070500 		mv	a4,a0
  81:src/memoryAllocator.cpp **** 
 320              		.loc 1 81 5 is_stmt 1
 321 0198 63020512 		beqz	a0,.L36
  81:src/memoryAllocator.cpp **** 
 322              		.loc 1 81 30 is_stmt 0 discriminator 2
 323 019c 97060000 		la	a3,HEAP_START_ADDR
 323      83B60600 
 324 01a4 83B60600 		ld	a3,0(a3)
  81:src/memoryAllocator.cpp **** 
 325              		.loc 1 81 23 discriminator 2
 326 01a8 636ED510 		bgtu	a3,a0,.L37
  81:src/memoryAllocator.cpp **** 
 327              		.loc 1 81 55 discriminator 4
 328 01ac 97060000 		la	a3,HEAP_END_ADDR
 328      83B60600 
 329 01b4 83B60600 		ld	a3,0(a3)
  81:src/memoryAllocator.cpp **** 
 330              		.loc 1 81 48 discriminator 4
 331 01b8 63EAA610 		bltu	a3,a0,.L38
 332              	.LVL26:
 333              	.L27:
GAS LISTING /tmp/cc3083Sy.s 			page 10


  85:src/memoryAllocator.cpp ****     if((char*)current != ((char*)ptr - BLOCK_HEADER_SIZE*MEM_BLOCK_SIZE)) return -3; // los pokaziv
 334              		.loc 1 85 5 is_stmt 1 discriminator 3
  85:src/memoryAllocator.cpp ****     if((char*)current != ((char*)ptr - BLOCK_HEADER_SIZE*MEM_BLOCK_SIZE)) return -3; // los pokaziv
 335              		.loc 1 85 27 discriminator 3
 336 01bc 13850700 		mv	a0,a5
  85:src/memoryAllocator.cpp ****     if((char*)current != ((char*)ptr - BLOCK_HEADER_SIZE*MEM_BLOCK_SIZE)) return -3; // los pokaziv
 337              		.loc 1 85 21 is_stmt 0 discriminator 3
 338 01c0 83B70701 		ld	a5,16(a5)
 339              	.LVL27:
  85:src/memoryAllocator.cpp ****     if((char*)current != ((char*)ptr - BLOCK_HEADER_SIZE*MEM_BLOCK_SIZE)) return -3; // los pokaziv
 340              		.loc 1 85 27 discriminator 3
 341 01c4 63840700 		beqz	a5,.L26
  85:src/memoryAllocator.cpp ****     if((char*)current != ((char*)ptr - BLOCK_HEADER_SIZE*MEM_BLOCK_SIZE)) return -3; // los pokaziv
 342              		.loc 1 85 27 discriminator 1
 343 01c8 E3EAE7FE 		bltu	a5,a4,.L27
 344              	.L26:
  86:src/memoryAllocator.cpp **** 
 345              		.loc 1 86 5 is_stmt 1
  86:src/memoryAllocator.cpp **** 
 346              		.loc 1 86 38 is_stmt 0
 347 01cc 130707F0 		addi	a4,a4,-256
 348              	.LVL28:
  86:src/memoryAllocator.cpp **** 
 349              		.loc 1 86 5
 350 01d0 6312A710 		bne	a4,a0,.L39
  89:src/memoryAllocator.cpp ****     else current->prev->next = current->next;
 351              		.loc 1 89 5 is_stmt 1
  89:src/memoryAllocator.cpp ****     else current->prev->next = current->next;
 352              		.loc 1 89 18 is_stmt 0
 353 01d4 03378500 		ld	a4,8(a0)
 354              	.LVL29:
  89:src/memoryAllocator.cpp ****     else current->prev->next = current->next;
 355              		.loc 1 89 5
 356 01d8 630A0708 		beqz	a4,.L43
  90:src/memoryAllocator.cpp ****     if(current->next) current->next->prev = current->prev;
 357              		.loc 1 90 10 is_stmt 1
  90:src/memoryAllocator.cpp ****     if(current->next) current->next->prev = current->prev;
 358              		.loc 1 90 30 is_stmt 0
 359 01dc 2338F700 		sd	a5,16(a4)
 360              	.L29:
  91:src/memoryAllocator.cpp **** 
 361              		.loc 1 91 5 is_stmt 1
  91:src/memoryAllocator.cpp **** 
 362              		.loc 1 91 17 is_stmt 0
 363 01e0 83370501 		ld	a5,16(a0)
  91:src/memoryAllocator.cpp **** 
 364              		.loc 1 91 5
 365 01e4 63860700 		beqz	a5,.L30
  91:src/memoryAllocator.cpp **** 
 366              		.loc 1 91 23 is_stmt 1 discriminator 1
  91:src/memoryAllocator.cpp **** 
 367              		.loc 1 91 54 is_stmt 0 discriminator 1
 368 01e8 03378500 		ld	a4,8(a0)
  91:src/memoryAllocator.cpp **** 
 369              		.loc 1 91 43 discriminator 1
 370 01ec 23B4E700 		sd	a4,8(a5)
 371              	.L30:
GAS LISTING /tmp/cc3083Sy.s 			page 11


  95:src/memoryAllocator.cpp ****         freeHead = current;
 372              		.loc 1 95 5 is_stmt 1
 373              	.LBB10:
  95:src/memoryAllocator.cpp ****         freeHead = current;
 374              		.loc 1 95 8 is_stmt 0
 375 01f0 97070000 		ld	a5,.LANCHOR0
 375      83B70700 
  95:src/memoryAllocator.cpp ****         freeHead = current;
 376              		.loc 1 95 5
 377 01f8 63800708 		beqz	a5,.L44
 378              	.LBE10:
  78:src/memoryAllocator.cpp **** 
 379              		.loc 1 78 42
 380 01fc 130101FE 		addi	sp,sp,-32
 381              		.cfi_def_cfa_offset 32
 382 0200 233C1100 		sd	ra,24(sp)
 383 0204 23388100 		sd	s0,16(sp)
 384 0208 23349100 		sd	s1,8(sp)
 385              		.cfi_offset 1, -8
 386              		.cfi_offset 8, -16
 387              		.cfi_offset 9, -24
 388 020c 13040102 		addi	s0,sp,32
 389              		.cfi_def_cfa 8, 0
  99:src/memoryAllocator.cpp ****         freeHead->prev = current;
 390              		.loc 1 99 12 is_stmt 1
 391              	.LBB15:
 392              	.LBB11:
 393 0210 6360F508 		bgtu	a5,a0,.L45
 394              	.L32:
 395              	.LVL30:
 396              	.LBB12:
 107:src/memoryAllocator.cpp **** 
 397              		.loc 1 107 9 discriminator 3
 107:src/memoryAllocator.cpp **** 
 398              		.loc 1 107 35 discriminator 3
 399 0214 93840700 		mv	s1,a5
 107:src/memoryAllocator.cpp **** 
 400              		.loc 1 107 29 is_stmt 0 discriminator 3
 401 0218 83B70701 		ld	a5,16(a5)
 402              	.LVL31:
 107:src/memoryAllocator.cpp **** 
 403              		.loc 1 107 35 discriminator 3
 404 021c 63840700 		beqz	a5,.L33
 107:src/memoryAllocator.cpp **** 
 405              		.loc 1 107 35 discriminator 1
 406 0220 E3EAA7FE 		bltu	a5,a0,.L32
 407              	.L33:
 109:src/memoryAllocator.cpp ****         current->next = currentFree->next;
 408              		.loc 1 109 9 is_stmt 1
 109:src/memoryAllocator.cpp ****         current->next = currentFree->next;
 409              		.loc 1 109 23 is_stmt 0
 410 0224 23349500 		sd	s1,8(a0)
 110:src/memoryAllocator.cpp ****         currentFree->next = current;
 411              		.loc 1 110 9 is_stmt 1
 110:src/memoryAllocator.cpp ****         currentFree->next = current;
 412              		.loc 1 110 38 is_stmt 0
 413 0228 83B70401 		ld	a5,16(s1)
GAS LISTING /tmp/cc3083Sy.s 			page 12


 110:src/memoryAllocator.cpp ****         currentFree->next = current;
 414              		.loc 1 110 23
 415 022c 2338F500 		sd	a5,16(a0)
 111:src/memoryAllocator.cpp ****         if(current->next) current->next->prev = current;
 416              		.loc 1 111 9 is_stmt 1
 111:src/memoryAllocator.cpp ****         if(current->next) current->next->prev = current;
 417              		.loc 1 111 27 is_stmt 0
 418 0230 23B8A400 		sd	a0,16(s1)
 112:src/memoryAllocator.cpp ****         tryToJoin(current); // ce proba da spoji current (koji je mozda spojen sa cirrefree) sa cur
 419              		.loc 1 112 9 is_stmt 1
 112:src/memoryAllocator.cpp ****         tryToJoin(current); // ce proba da spoji current (koji je mozda spojen sa cirrefree) sa cur
 420              		.loc 1 112 21 is_stmt 0
 421 0234 83370501 		ld	a5,16(a0)
 112:src/memoryAllocator.cpp ****         tryToJoin(current); // ce proba da spoji current (koji je mozda spojen sa cirrefree) sa cur
 422              		.loc 1 112 9
 423 0238 63840700 		beqz	a5,.L34
 112:src/memoryAllocator.cpp ****         tryToJoin(current); // ce proba da spoji current (koji je mozda spojen sa cirrefree) sa cur
 424              		.loc 1 112 27 is_stmt 1 discriminator 1
 112:src/memoryAllocator.cpp ****         tryToJoin(current); // ce proba da spoji current (koji je mozda spojen sa cirrefree) sa cur
 425              		.loc 1 112 47 is_stmt 0 discriminator 1
 426 023c 23B4A700 		sd	a0,8(a5)
 427              	.L34:
 113:src/memoryAllocator.cpp ****         tryToJoin(currentFree); // ce proba da spoji sa current
 428              		.loc 1 113 9 is_stmt 1
 113:src/memoryAllocator.cpp ****         tryToJoin(currentFree); // ce proba da spoji sa current
 429              		.loc 1 113 18 is_stmt 0
 430 0240 97000000 		call	_ZN15MemoryAllocator9tryToJoinEP11BlockHeader
 430      E7800000 
 431              	.LVL32:
 114:src/memoryAllocator.cpp ****         // tryToJoin mora da ide ovim redom, jer ako se prva dva spoje,
 432              		.loc 1 114 9 is_stmt 1
 114:src/memoryAllocator.cpp ****         // tryToJoin mora da ide ovim redom, jer ako se prva dva spoje,
 433              		.loc 1 114 18 is_stmt 0
 434 0248 13850400 		mv	a0,s1
 435 024c 97000000 		call	_ZN15MemoryAllocator9tryToJoinEP11BlockHeader
 435      E7800000 
 436              	.LVL33:
 437              	.LBE12:
 438              	.LBE11:
 439              	.LBE15:
 119:src/memoryAllocator.cpp **** }
 440              		.loc 1 119 12
 441 0254 13050000 		li	a0,0
 442              	.LVL34:
 443              	.L25:
 120:src/memoryAllocator.cpp **** 
 444              		.loc 1 120 1
 445 0258 83308101 		ld	ra,24(sp)
 446              		.cfi_restore 1
 447 025c 03340101 		ld	s0,16(sp)
 448              		.cfi_restore 8
 449              		.cfi_def_cfa 2, 32
 450 0260 83348100 		ld	s1,8(sp)
 451              		.cfi_restore 9
 452 0264 13010102 		addi	sp,sp,32
 453              		.cfi_def_cfa_offset 0
 454 0268 67800000 		jr	ra
GAS LISTING /tmp/cc3083Sy.s 			page 13


 455              	.LVL35:
 456              	.L43:
  89:src/memoryAllocator.cpp ****     else current->prev->next = current->next;
 457              		.loc 1 89 24 is_stmt 1 discriminator 1
  89:src/memoryAllocator.cpp ****     else current->prev->next = current->next;
 458              		.loc 1 89 38 is_stmt 0 discriminator 1
 459 026c 17070000 		sd	a5,.LANCHOR0+8,a4
 459      2330F700 
 460 0274 6FF0DFF6 		j	.L29
 461              	.L44:
 462              	.LBB16:
  96:src/memoryAllocator.cpp ****         current->prev = nullptr;
 463              		.loc 1 96 9 is_stmt 1
  96:src/memoryAllocator.cpp ****         current->prev = nullptr;
 464              		.loc 1 96 18 is_stmt 0
 465 0278 97070000 		sd	a0,.LANCHOR0,a5
 465      23B0A700 
  97:src/memoryAllocator.cpp ****         current->next = nullptr;
 466              		.loc 1 97 9 is_stmt 1
  97:src/memoryAllocator.cpp ****         current->next = nullptr;
 467              		.loc 1 97 23 is_stmt 0
 468 0280 23340500 		sd	zero,8(a0)
  98:src/memoryAllocator.cpp ****     } else if(current < freeHead){
 469              		.loc 1 98 9 is_stmt 1
  98:src/memoryAllocator.cpp ****     } else if(current < freeHead){
 470              		.loc 1 98 23 is_stmt 0
 471 0284 23380500 		sd	zero,16(a0)
 472              	.LBE16:
 119:src/memoryAllocator.cpp **** }
 473              		.loc 1 119 12
 474 0288 13050000 		li	a0,0
 475              	.LVL36:
 476              	.LBB17:
 477 028c 67800000 		ret
 478              	.LVL37:
 479              	.L45:
 480              		.cfi_def_cfa_register 8
 481              		.cfi_offset 1, -8
 482              		.cfi_offset 8, -16
 483              		.cfi_offset 9, -24
 484              	.LBB13:
 100:src/memoryAllocator.cpp ****         current->next = freeHead;
 485              		.loc 1 100 9 is_stmt 1
 100:src/memoryAllocator.cpp ****         current->next = freeHead;
 486              		.loc 1 100 24 is_stmt 0
 487 0290 23B4A700 		sd	a0,8(a5)
 101:src/memoryAllocator.cpp ****         freeHead = current;
 488              		.loc 1 101 9 is_stmt 1
 101:src/memoryAllocator.cpp ****         freeHead = current;
 489              		.loc 1 101 23 is_stmt 0
 490 0294 2338F500 		sd	a5,16(a0)
 102:src/memoryAllocator.cpp ****         current->prev = nullptr;
 491              		.loc 1 102 9 is_stmt 1
 102:src/memoryAllocator.cpp ****         current->prev = nullptr;
 492              		.loc 1 102 18 is_stmt 0
 493 0298 97070000 		sd	a0,.LANCHOR0,a5
 493      23B0A700 
GAS LISTING /tmp/cc3083Sy.s 			page 14


 103:src/memoryAllocator.cpp ****         tryToJoin(current);
 494              		.loc 1 103 9 is_stmt 1
 103:src/memoryAllocator.cpp ****         tryToJoin(current);
 495              		.loc 1 103 23 is_stmt 0
 496 02a0 23340500 		sd	zero,8(a0)
 104:src/memoryAllocator.cpp ****     } else{
 497              		.loc 1 104 9 is_stmt 1
 104:src/memoryAllocator.cpp ****     } else{
 498              		.loc 1 104 18 is_stmt 0
 499 02a4 97000000 		call	_ZN15MemoryAllocator9tryToJoinEP11BlockHeader
 499      E7800000 
 500              	.LVL38:
 501              	.LBE13:
 502              	.LBE17:
 119:src/memoryAllocator.cpp **** }
 503              		.loc 1 119 12
 504 02ac 13050000 		li	a0,0
 505              	.LBB18:
 506              	.LBB14:
 507 02b0 6FF09FFA 		j	.L25
 508              	.LVL39:
 509              	.L35:
 510              		.cfi_def_cfa_register 2
 511              		.cfi_restore 1
 512              		.cfi_restore 8
 513              		.cfi_restore 9
 514              	.LBE14:
 515              	.LBE18:
  80:src/memoryAllocator.cpp ****     if(ptr == nullptr || ptr < HEAP_START_ADDR || ptr > HEAP_END_ADDR) return -2; // los prosledjen
 516              		.loc 1 80 32
 517 02b4 1305F0FF 		li	a0,-1
 518              	.LVL40:
 519 02b8 67800000 		ret
 520              	.LVL41:
 521              	.L36:
  81:src/memoryAllocator.cpp **** 
 522              		.loc 1 81 80
 523 02bc 1305E0FF 		li	a0,-2
 524              	.LVL42:
 525 02c0 67800000 		ret
 526              	.LVL43:
 527              	.L37:
 528 02c4 1305E0FF 		li	a0,-2
 529              	.LVL44:
 530 02c8 67800000 		ret
 531              	.LVL45:
 532              	.L38:
 533 02cc 1305E0FF 		li	a0,-2
 534              	.LVL46:
 535 02d0 67800000 		ret
 536              	.LVL47:
 537              	.L39:
  86:src/memoryAllocator.cpp **** 
 538              		.loc 1 86 83
 539 02d4 1305D0FF 		li	a0,-3
 540              	.LVL48:
 120:src/memoryAllocator.cpp **** 
GAS LISTING /tmp/cc3083Sy.s 			page 15


 541              		.loc 1 120 1
 542 02d8 67800000 		ret
 543              		.cfi_endproc
 544              	.LFE1:
 546              		.align	2
 547              		.globl	_ZN15MemoryAllocator10initMemoryEv
 549              	_ZN15MemoryAllocator10initMemoryEv:
 550              	.LFB3:
 131:src/memoryAllocator.cpp **** 
 132:src/memoryAllocator.cpp **** void MemoryAllocator::initMemory(){
 551              		.loc 1 132 35 is_stmt 1
 552              		.cfi_startproc
 553 02dc 130101FF 		addi	sp,sp,-16
 554              		.cfi_def_cfa_offset 16
 555 02e0 23348100 		sd	s0,8(sp)
 556              		.cfi_offset 8, -8
 557 02e4 13040101 		addi	s0,sp,16
 558              		.cfi_def_cfa 8, 0
 133:src/memoryAllocator.cpp ****     freeHead = (BlockHeader*)(((size_t)HEAP_START_ADDR + MEM_BLOCK_SIZE - 1) & ~(MEM_BLOCK_SIZE - 1
 559              		.loc 1 133 5
 560              		.loc 1 133 73 is_stmt 0
 561 02e8 97070000 		la	a5,HEAP_START_ADDR
 561      83B70700 
 562 02f0 03B60700 		ld	a2,0(a5)
 563 02f4 1307F60F 		addi	a4,a2,255
 564              		.loc 1 133 78
 565 02f8 137707F0 		andi	a4,a4,-256
 566              		.loc 1 133 14
 567 02fc 97060000 		lla	a3,.LANCHOR0
 567      93860600 
 568 0304 23B0E600 		sd	a4,0(a3)
 134:src/memoryAllocator.cpp ****     freeHead->size = ((size_t)HEAP_END_ADDR - (size_t)HEAP_START_ADDR)/MEM_BLOCK_SIZE - BLOCK_HEADE
 569              		.loc 1 134 5 is_stmt 1
 570              		.loc 1 134 45 is_stmt 0
 571 0308 97070000 		la	a5,HEAP_END_ADDR
 571      83B70700 
 572 0310 83B70700 		ld	a5,0(a5)
 573 0314 B387C740 		sub	a5,a5,a2
 574              		.loc 1 134 71
 575 0318 93D78700 		srli	a5,a5,8
 576              		.loc 1 134 87
 577 031c 9387F7FF 		addi	a5,a5,-1
 578              		.loc 1 134 20
 579 0320 2330F700 		sd	a5,0(a4)
 135:src/memoryAllocator.cpp ****     freeHead->prev = nullptr;
 580              		.loc 1 135 5 is_stmt 1
 581              		.loc 1 135 15 is_stmt 0
 582 0324 83B70600 		ld	a5,0(a3)
 583              		.loc 1 135 20
 584 0328 23B40700 		sd	zero,8(a5)
 136:src/memoryAllocator.cpp ****     freeHead->next = nullptr;
 585              		.loc 1 136 5 is_stmt 1
 586              		.loc 1 136 20 is_stmt 0
 587 032c 23B80700 		sd	zero,16(a5)
 137:src/memoryAllocator.cpp **** }...
 588              		.loc 1 137 1
 589 0330 03348100 		ld	s0,8(sp)
GAS LISTING /tmp/cc3083Sy.s 			page 16


 590              		.cfi_restore 8
 591              		.cfi_def_cfa 2, 16
 592 0334 13010101 		addi	sp,sp,16
 593              		.cfi_def_cfa_offset 0
 594 0338 67800000 		jr	ra
 595              		.cfi_endproc
 596              	.LFE3:
 598              		.globl	_ZN15MemoryAllocator13allocatedHeadE
 599              		.globl	_ZN15MemoryAllocator8freeHeadE
 600              		.bss
 601              		.align	3
 602              		.set	.LANCHOR0,. + 0
 605              	_ZN15MemoryAllocator8freeHeadE:
 606 0000 00000000 		.zero	8
 606      00000000 
 609              	_ZN15MemoryAllocator13allocatedHeadE:
 610 0008 00000000 		.zero	8
 610      00000000 
 611              		.text
 612              	.Letext0:
 613              		.file 2 "src/../lib/hw.h"
 614              		.file 3 "src/../h/memoryAllocator.hpp"
GAS LISTING /tmp/cc3083Sy.s 			page 17

