GAS LISTING /tmp/ccf1ut2m.s 			page 1


   1              		.file	"myConsole.cpp"
   2              		.option pic
   3              		.option norelax
   4              		.text
   5              	.Ltext0:
   6              		.align	2
   7              		.globl	_ZN9myConsole4initEv
   9              	_ZN9myConsole4initEv:
  10              	.LFB74:
  11              		.file 1 "src/myConsole.cpp"
   1:src/myConsole.cpp **** #include "../h/myConsole.hpp"
   2:src/myConsole.cpp **** 
   3:src/myConsole.cpp **** ConsoleBuffer* myConsole::buffIn = nullptr;
   4:src/myConsole.cpp **** ConsoleBuffer* myConsole:: buffOut = nullptr;
   5:src/myConsole.cpp **** 
   6:src/myConsole.cpp **** void myConsole::init() {
  12              		.loc 1 6 24
  13              		.cfi_startproc
  14              		.cfi_personality 0x9b,DW.ref.__gxx_personality_v0
  15              		.cfi_lsda 0x1b,.LLSDA74
  16 0000 130101FE 		addi	sp,sp,-32
  17              		.cfi_def_cfa_offset 32
  18 0004 233C1100 		sd	ra,24(sp)
  19 0008 23388100 		sd	s0,16(sp)
  20 000c 23349100 		sd	s1,8(sp)
  21 0010 23302101 		sd	s2,0(sp)
  22              		.cfi_offset 1, -8
  23              		.cfi_offset 8, -16
  24              		.cfi_offset 9, -24
  25              		.cfi_offset 18, -32
  26 0014 13040102 		addi	s0,sp,32
  27              		.cfi_def_cfa 8, 0
   7:src/myConsole.cpp ****     buffIn = new ConsoleBuffer(200);
  28              		.loc 1 7 5
  29              		.loc 1 7 35 is_stmt 0
  30 0018 13058003 		li	a0,56
  31              	.LEHB0:
  32 001c 97000000 		call	_ZN13ConsoleBuffernwEm@plt
  32      E7800000 
  33              	.LVL0:
  34              	.LEHE0:
  35 0024 93040500 		mv	s1,a0
  36 0028 9305800C 		li	a1,200
  37              	.LEHB1:
  38 002c 97000000 		call	_ZN13ConsoleBufferC1Ei@plt
  38      E7800000 
  39              	.LVL1:
  40              	.LEHE1:
  41              		.loc 1 7 12 discriminator 2
  42 0034 97070000 		sd	s1,.LANCHOR0,a5
  42      23B09700 
   8:src/myConsole.cpp ****     buffOut = new ConsoleBuffer(200);
  43              		.loc 1 8 5 is_stmt 1 discriminator 2
  44              		.loc 1 8 36 is_stmt 0 discriminator 2
  45 003c 13058003 		li	a0,56
  46              	.LEHB2:
  47 0040 97000000 		call	_ZN13ConsoleBuffernwEm@plt
GAS LISTING /tmp/ccf1ut2m.s 			page 2


  47      E7800000 
  48              	.LVL2:
  49              	.LEHE2:
  50 0048 93040500 		mv	s1,a0
  51 004c 9305800C 		li	a1,200
  52              	.LEHB3:
  53 0050 97000000 		call	_ZN13ConsoleBufferC1Ei@plt
  53      E7800000 
  54              	.LVL3:
  55              	.LEHE3:
  56              		.loc 1 8 13 discriminator 2
  57 0058 97070000 		sd	s1,.LANCHOR0+8,a5
  57      23B09700 
   9:src/myConsole.cpp **** }
  58              		.loc 1 9 1 discriminator 2
  59 0060 83308101 		ld	ra,24(sp)
  60              		.cfi_remember_state
  61              		.cfi_restore 1
  62 0064 03340101 		ld	s0,16(sp)
  63              		.cfi_restore 8
  64              		.cfi_def_cfa 2, 32
  65 0068 83348100 		ld	s1,8(sp)
  66              		.cfi_restore 9
  67 006c 03390100 		ld	s2,0(sp)
  68              		.cfi_restore 18
  69 0070 13010102 		addi	sp,sp,32
  70              		.cfi_def_cfa_offset 0
  71 0074 67800000 		jr	ra
  72              	.L4:
  73              		.cfi_restore_state
  74 0078 13090500 		mv	s2,a0
   7:src/myConsole.cpp ****     buffIn = new ConsoleBuffer(200);
  75              		.loc 1 7 35
  76 007c 13850400 		mv	a0,s1
  77 0080 97000000 		call	_ZN13ConsoleBufferdlEPv@plt
  77      E7800000 
  78              	.LVL4:
  79 0088 13050900 		mv	a0,s2
  80              	.LEHB4:
  81 008c 97000000 		call	_Unwind_Resume@plt
  81      E7800000 
  82              	.LVL5:
  83              	.LEHE4:
  84              	.L5:
  85 0094 13090500 		mv	s2,a0
   8:src/myConsole.cpp ****     buffOut = new ConsoleBuffer(200);
  86              		.loc 1 8 36
  87 0098 13850400 		mv	a0,s1
  88 009c 97000000 		call	_ZN13ConsoleBufferdlEPv@plt
  88      E7800000 
  89              	.LVL6:
  90 00a4 13050900 		mv	a0,s2
  91              	.LEHB5:
  92 00a8 97000000 		call	_Unwind_Resume@plt
  92      E7800000 
  93              	.LVL7:
  94              	.LEHE5:
GAS LISTING /tmp/ccf1ut2m.s 			page 3


  95              		.cfi_endproc
  96              	.LFE74:
  97              		.globl	__gxx_personality_v0
  98              		.section	.gcc_except_table,"a",@progbits
  99              	.LLSDA74:
 100 0000 FF       		.byte	0xff
 101 0001 FF       		.byte	0xff
 102 0002 03       		.byte	0x3
 103 0003 4E       		.byte	0x4e
 104 0004 00000000 		.4byte	.LEHB0-.LFB74
 105 0008 00000000 		.4byte	.LEHE0-.LEHB0
 106 000c 00000000 		.4byte	0
 107 0010 00       		.byte	0
 108 0011 00000000 		.4byte	.LEHB1-.LFB74
 109 0015 00000000 		.4byte	.LEHE1-.LEHB1
 110 0019 00000000 		.4byte	.L4-.LFB74
 111 001d 00       		.byte	0
 112 001e 00000000 		.4byte	.LEHB2-.LFB74
 113 0022 00000000 		.4byte	.LEHE2-.LEHB2
 114 0026 00000000 		.4byte	0
 115 002a 00       		.byte	0
 116 002b 00000000 		.4byte	.LEHB3-.LFB74
 117 002f 00000000 		.4byte	.LEHE3-.LEHB3
 118 0033 00000000 		.4byte	.L5-.LFB74
 119 0037 00       		.byte	0
 120 0038 00000000 		.4byte	.LEHB4-.LFB74
 121 003c 00000000 		.4byte	.LEHE4-.LEHB4
 122 0040 00000000 		.4byte	0
 123 0044 00       		.byte	0
 124 0045 00000000 		.4byte	.LEHB5-.LFB74
 125 0049 00000000 		.4byte	.LEHE5-.LEHB5
 126 004d 00000000 		.4byte	0
 127 0051 00       		.byte	0
 128              		.text
 130              		.align	2
 131              		.globl	_ZN9myConsole4getcEv
 133              	_ZN9myConsole4getcEv:
 134              	.LFB75:
  10:src/myConsole.cpp **** 
  11:src/myConsole.cpp **** char myConsole::getc() {
 135              		.loc 1 11 24 is_stmt 1
 136              		.cfi_startproc
 137 00b0 130101FF 		addi	sp,sp,-16
 138              		.cfi_def_cfa_offset 16
 139 00b4 23341100 		sd	ra,8(sp)
 140 00b8 23308100 		sd	s0,0(sp)
 141              		.cfi_offset 1, -8
 142              		.cfi_offset 8, -16
 143 00bc 13040101 		addi	s0,sp,16
 144              		.cfi_def_cfa 8, 0
  12:src/myConsole.cpp ****     return buffIn->get();
 145              		.loc 1 12 5
 146              		.loc 1 12 23 is_stmt 0
 147 00c0 17050000 		ld	a0,.LANCHOR0
 147      03350500 
 148 00c8 97000000 		call	_ZN13ConsoleBuffer3getEv@plt
 148      E7800000 
GAS LISTING /tmp/ccf1ut2m.s 			page 4


 149              	.LVL8:
  13:src/myConsole.cpp **** }
 150              		.loc 1 13 1
 151 00d0 1375F50F 		andi	a0,a0,0xff
 152 00d4 83308100 		ld	ra,8(sp)
 153              		.cfi_restore 1
 154 00d8 03340100 		ld	s0,0(sp)
 155              		.cfi_restore 8
 156              		.cfi_def_cfa 2, 16
 157 00dc 13010101 		addi	sp,sp,16
 158              		.cfi_def_cfa_offset 0
 159 00e0 67800000 		jr	ra
 160              		.cfi_endproc
 161              	.LFE75:
 163              		.align	2
 164              		.globl	_ZN9myConsole19recieveFromKeyboardEc
 166              	_ZN9myConsole19recieveFromKeyboardEc:
 167              	.LFB76:
  14:src/myConsole.cpp **** 
  15:src/myConsole.cpp **** void myConsole::recieveFromKeyboard(char c) {
 168              		.loc 1 15 45 is_stmt 1
 169              		.cfi_startproc
 170              	.LVL9:
 171 00e4 130101FF 		addi	sp,sp,-16
 172              		.cfi_def_cfa_offset 16
 173 00e8 23341100 		sd	ra,8(sp)
 174 00ec 23308100 		sd	s0,0(sp)
 175              		.cfi_offset 1, -8
 176              		.cfi_offset 8, -16
 177 00f0 13040101 		addi	s0,sp,16
 178              		.cfi_def_cfa 8, 0
 179 00f4 93050500 		mv	a1,a0
  16:src/myConsole.cpp ****     buffIn->put(c);
 180              		.loc 1 16 5
 181              		.loc 1 16 16 is_stmt 0
 182 00f8 17050000 		ld	a0,.LANCHOR0
 182      03350500 
 183              	.LVL10:
 184 0100 97000000 		call	_ZN13ConsoleBuffer3putEc@plt
 184      E7800000 
 185              	.LVL11:
  17:src/myConsole.cpp **** }
 186              		.loc 1 17 1
 187 0108 83308100 		ld	ra,8(sp)
 188              		.cfi_restore 1
 189 010c 03340100 		ld	s0,0(sp)
 190              		.cfi_restore 8
 191              		.cfi_def_cfa 2, 16
 192 0110 13010101 		addi	sp,sp,16
 193              		.cfi_def_cfa_offset 0
 194 0114 67800000 		jr	ra
 195              		.cfi_endproc
 196              	.LFE76:
 198              		.align	2
 199              		.globl	_ZN9myConsole13sendToMonitorEv
 201              	_ZN9myConsole13sendToMonitorEv:
 202              	.LFB77:
GAS LISTING /tmp/ccf1ut2m.s 			page 5


  18:src/myConsole.cpp **** 
  19:src/myConsole.cpp **** char myConsole::sendToMonitor() {
 203              		.loc 1 19 33 is_stmt 1
 204              		.cfi_startproc
 205 0118 130101FF 		addi	sp,sp,-16
 206              		.cfi_def_cfa_offset 16
 207 011c 23341100 		sd	ra,8(sp)
 208 0120 23308100 		sd	s0,0(sp)
 209              		.cfi_offset 1, -8
 210              		.cfi_offset 8, -16
 211 0124 13040101 		addi	s0,sp,16
 212              		.cfi_def_cfa 8, 0
  20:src/myConsole.cpp ****     return buffOut->get();
 213              		.loc 1 20 5
 214              		.loc 1 20 24 is_stmt 0
 215 0128 17050000 		ld	a0,.LANCHOR0+8
 215      03350500 
 216 0130 97000000 		call	_ZN13ConsoleBuffer3getEv@plt
 216      E7800000 
 217              	.LVL12:
  21:src/myConsole.cpp **** }
 218              		.loc 1 21 1
 219 0138 1375F50F 		andi	a0,a0,0xff
 220 013c 83308100 		ld	ra,8(sp)
 221              		.cfi_restore 1
 222 0140 03340100 		ld	s0,0(sp)
 223              		.cfi_restore 8
 224              		.cfi_def_cfa 2, 16
 225 0144 13010101 		addi	sp,sp,16
 226              		.cfi_def_cfa_offset 0
 227 0148 67800000 		jr	ra
 228              		.cfi_endproc
 229              	.LFE77:
 231              		.align	2
 232              		.globl	_ZN9myConsole4putcEc
 234              	_ZN9myConsole4putcEc:
 235              	.LFB78:
  22:src/myConsole.cpp **** void myConsole::putc(char c) {
 236              		.loc 1 22 30 is_stmt 1
 237              		.cfi_startproc
 238              	.LVL13:
 239 014c 130101FF 		addi	sp,sp,-16
 240              		.cfi_def_cfa_offset 16
 241 0150 23341100 		sd	ra,8(sp)
 242 0154 23308100 		sd	s0,0(sp)
 243              		.cfi_offset 1, -8
 244              		.cfi_offset 8, -16
 245 0158 13040101 		addi	s0,sp,16
 246              		.cfi_def_cfa 8, 0
 247 015c 93050500 		mv	a1,a0
  23:src/myConsole.cpp ****     buffOut->put(c);
 248              		.loc 1 23 5
 249              		.loc 1 23 17 is_stmt 0
 250 0160 17050000 		ld	a0,.LANCHOR0+8
 250      03350500 
 251              	.LVL14:
 252 0168 97000000 		call	_ZN13ConsoleBuffer3putEc@plt
GAS LISTING /tmp/ccf1ut2m.s 			page 6


 252      E7800000 
 253              	.LVL15:
  24:src/myConsole.cpp **** }
 254              		.loc 1 24 1
 255 0170 83308100 		ld	ra,8(sp)
 256              		.cfi_restore 1
 257 0174 03340100 		ld	s0,0(sp)
 258              		.cfi_restore 8
 259              		.cfi_def_cfa 2, 16
 260 0178 13010101 		addi	sp,sp,16
 261              		.cfi_def_cfa_offset 0
 262 017c 67800000 		jr	ra
 263              		.cfi_endproc
 264              	.LFE78:
 266              		.align	2
 267              		.globl	_ZN9myConsole13monitorOutputEv
 269              	_ZN9myConsole13monitorOutputEv:
 270              	.LFB79:
  25:src/myConsole.cpp **** 
  26:src/myConsole.cpp **** void myConsole::monitorOutput(){
 271              		.loc 1 26 32 is_stmt 1
 272              		.cfi_startproc
 273 0180 130101FE 		addi	sp,sp,-32
 274              		.cfi_def_cfa_offset 32
 275 0184 233C1100 		sd	ra,24(sp)
 276 0188 23388100 		sd	s0,16(sp)
 277 018c 23349100 		sd	s1,8(sp)
 278 0190 23302101 		sd	s2,0(sp)
 279              		.cfi_offset 1, -8
 280              		.cfi_offset 8, -16
 281              		.cfi_offset 9, -24
 282              		.cfi_offset 18, -32
 283 0194 13040102 		addi	s0,sp,32
 284              		.cfi_def_cfa 8, 0
 285              	.L17:
  27:src/myConsole.cpp ****     while (true){
 286              		.loc 1 27 5
 287              	.LBB2:
  28:src/myConsole.cpp ****         char status = *(char*)CONSOLE_STATUS;
 288              		.loc 1 28 9
 289              		.loc 1 28 23 is_stmt 0
 290 0198 97070000 		la	a5,CONSOLE_STATUS
 290      83B70700 
 291 01a0 03B90700 		ld	s2,0(a5)
 292              		.loc 1 28 14
 293 01a4 83470900 		lbu	a5,0(s2)
 294              	.LVL16:
 295              	.L18:
  29:src/myConsole.cpp ****         while(status &  CONSOLE_TX_STATUS_BIT) {
 296              		.loc 1 29 9 is_stmt 1
 297              		.loc 1 29 25
 298 01a8 93F70702 		andi	a5,a5,32
 299              	.LVL17:
 300 01ac E38607FE 		beqz	a5,.L17
  30:src/myConsole.cpp ****             *(char *) CONSOLE_TX_DATA = myConsole::sendToMonitor();
 301              		.loc 1 30 13
 302 01b0 97070000 		la	a5,CONSOLE_TX_DATA
GAS LISTING /tmp/ccf1ut2m.s 			page 7


 302      83B70700 
 303 01b8 83B40700 		ld	s1,0(a5)
 304              		.loc 1 30 65 is_stmt 0
 305 01bc 97000000 		call	_ZN9myConsole13sendToMonitorEv
 305      E7800000 
 306              	.LVL18:
 307              		.loc 1 30 39
 308 01c4 2380A400 		sb	a0,0(s1)
  31:src/myConsole.cpp ****             status = *(char *) CONSOLE_STATUS;
 309              		.loc 1 31 13 is_stmt 1
 310              		.loc 1 31 20 is_stmt 0
 311 01c8 83470900 		lbu	a5,0(s2)
 312              	.LVL19:
  29:src/myConsole.cpp ****         while(status &  CONSOLE_TX_STATUS_BIT) {
 313              		.loc 1 29 9
 314 01cc 6FF0DFFD 		j	.L18
 315              	.LBE2:
 316              		.cfi_endproc
 317              	.LFE79:
 319              		.globl	_ZN9myConsole7buffOutE
 320              		.globl	_ZN9myConsole6buffInE
 321              		.bss
 322              		.align	3
 323              		.set	.LANCHOR0,. + 0
 326              	_ZN9myConsole6buffInE:
 327 0000 00000000 		.zero	8
 327      00000000 
 330              	_ZN9myConsole7buffOutE:
 331 0008 00000000 		.zero	8
 331      00000000 
 332              		.text
 333              	.Letext0:
 334              		.file 2 "src/../h/../h/../lib/hw.h"
 335              		.file 3 "src/../h/../h/tcb.hpp"
 336              		.file 4 "src/../h/../h/../h/../h/threadList.hpp"
 337              		.file 5 "src/../h/../h/../h/sem.hpp"
 338              		.file 6 "src/../h/../h/sleepingThreadList.hpp"
 339              		.file 7 "src/../h/../h/syscall_c.hpp"
 340              		.file 8 "src/../h/consoleBuffer.hpp"
 341              		.file 9 "src/../h/myConsole.hpp"
 3604              		.align	3
 3607              	DW.ref.__gxx_personality_v0:
 3608 0000 00000000 		.dword	__gxx_personality_v0
 3608      00000000 
 3609              		.ident	"GCC: (Ubuntu 9.4.0-1ubuntu1~20.04) 9.4.0"
 3610              		.section	.note.GNU-stack,"",@progbits
GAS LISTING /tmp/ccf1ut2m.s 			page 8

