GAS LISTING /tmp/ccDEI8Nt.s 			page 1


   1              		.file	"print.cpp"
   2              		.option pic
   3              		.option norelax
   4              		.text
   5              	.Ltext0:
   6              		.align	2
   7              		.globl	_Z15printStringTrapPKc
   9              	_Z15printStringTrapPKc:
  10              	.LFB90:
  11              		.file 1 "src/print.cpp"
   1:src/print.cpp **** #include "../h/print.hpp"
   2:src/print.cpp **** #include "../h/riscv.hpp"
   3:src/print.cpp **** //#include "../lib/console.h"
   4:src/print.cpp **** #include "../h/myConsole.hpp"
   5:src/print.cpp **** #include "../h/syscall_c.hpp"
   6:src/print.cpp **** 
   7:src/print.cpp **** void printStringTrap(char const *string)
   8:src/print.cpp **** {
  12              		.loc 1 8 1
  13              		.cfi_startproc
  14              	.LVL0:
  15 0000 130101FD 		addi	sp,sp,-48
  16              		.cfi_def_cfa_offset 48
  17 0004 23341102 		sd	ra,40(sp)
  18 0008 23308102 		sd	s0,32(sp)
  19 000c 233C9100 		sd	s1,24(sp)
  20 0010 23382101 		sd	s2,16(sp)
  21              		.cfi_offset 1, -8
  22              		.cfi_offset 8, -16
  23              		.cfi_offset 9, -24
  24              		.cfi_offset 18, -32
  25 0014 13040103 		addi	s0,sp,48
  26              		.cfi_def_cfa 8, 0
  27 0018 93040500 		mv	s1,a0
   9:src/print.cpp ****     uint64 sstatus = Riscv::r_sstatus();
  28              		.loc 1 9 5
  29              	.LBB8:
  30              	.LBB9:
  31              		.file 2 "src/../h/riscv.hpp"
   1:src/../h/riscv.hpp **** #ifndef OS1_VEZBE07_RISCV_CONTEXT_SWITCH_2_INTERRUPT_RISCV_HPP
   2:src/../h/riscv.hpp **** #define OS1_VEZBE07_RISCV_CONTEXT_SWITCH_2_INTERRUPT_RISCV_HPP
   3:src/../h/riscv.hpp **** 
   4:src/../h/riscv.hpp **** #include "../lib/hw.h"
   5:src/../h/riscv.hpp **** 
   6:src/../h/riscv.hpp **** class Riscv
   7:src/../h/riscv.hpp **** {
   8:src/../h/riscv.hpp **** public:
   9:src/../h/riscv.hpp ****     // push x3..x31 registers onto stack
  10:src/../h/riscv.hpp ****     static void pushRegisters();
  11:src/../h/riscv.hpp **** 
  12:src/../h/riscv.hpp ****     //pop x3..x31 registers from stack
  13:src/../h/riscv.hpp ****     static void popRegisters();
  14:src/../h/riscv.hpp **** 
  15:src/../h/riscv.hpp ****     static void popSppSpie();
  16:src/../h/riscv.hpp **** 
  17:src/../h/riscv.hpp ****     // read register scause
  18:src/../h/riscv.hpp ****     static uint64 r_scause();
GAS LISTING /tmp/ccDEI8Nt.s 			page 2


  19:src/../h/riscv.hpp **** 
  20:src/../h/riscv.hpp ****     // write register scause
  21:src/../h/riscv.hpp ****     static void w_scause(uint64 scause);
  22:src/../h/riscv.hpp **** 
  23:src/../h/riscv.hpp ****     // read register sepc
  24:src/../h/riscv.hpp ****     static uint64 r_sepc();
  25:src/../h/riscv.hpp **** 
  26:src/../h/riscv.hpp ****     // write register sepc
  27:src/../h/riscv.hpp ****     static void w_sepc(uint64 sepc);
  28:src/../h/riscv.hpp **** 
  29:src/../h/riscv.hpp ****     // read register stvec
  30:src/../h/riscv.hpp ****     static uint64 r_stvec();
  31:src/../h/riscv.hpp **** 
  32:src/../h/riscv.hpp ****     // write register stvec
  33:src/../h/riscv.hpp ****     static void w_stvec(uint64 stvec);
  34:src/../h/riscv.hpp **** 
  35:src/../h/riscv.hpp ****     // read register stval
  36:src/../h/riscv.hpp ****     static uint64 r_stval();
  37:src/../h/riscv.hpp **** 
  38:src/../h/riscv.hpp ****     // write register stval
  39:src/../h/riscv.hpp ****     static void w_stval(uint64 stval);
  40:src/../h/riscv.hpp **** 
  41:src/../h/riscv.hpp ****     enum BitMaskSip
  42:src/../h/riscv.hpp ****     {
  43:src/../h/riscv.hpp ****         SIP_SSIP = (1 << 1),
  44:src/../h/riscv.hpp ****         SIP_STIP = (1 << 5),
  45:src/../h/riscv.hpp ****         SIP_SEIP = (1 << 9),
  46:src/../h/riscv.hpp ****     };
  47:src/../h/riscv.hpp **** 
  48:src/../h/riscv.hpp ****     // mask set register sip
  49:src/../h/riscv.hpp ****     static void ms_sip(uint64 mask);
  50:src/../h/riscv.hpp **** 
  51:src/../h/riscv.hpp ****     // mask clear register sip
  52:src/../h/riscv.hpp ****     static void mc_sip(uint64 mask);
  53:src/../h/riscv.hpp **** 
  54:src/../h/riscv.hpp ****     // read register sip
  55:src/../h/riscv.hpp ****     static uint64 r_sip();
  56:src/../h/riscv.hpp **** 
  57:src/../h/riscv.hpp ****     // write register sip
  58:src/../h/riscv.hpp ****     static void w_sip(uint64 sip);
  59:src/../h/riscv.hpp **** 
  60:src/../h/riscv.hpp ****     enum BitMaskSstatus
  61:src/../h/riscv.hpp ****     {
  62:src/../h/riscv.hpp ****         SSTATUS_SIE = (1 << 1),
  63:src/../h/riscv.hpp ****         SSTATUS_SPIE = (1 << 5),
  64:src/../h/riscv.hpp ****         SSTATUS_SPP = (1 << 8),
  65:src/../h/riscv.hpp ****     };
  66:src/../h/riscv.hpp **** 
  67:src/../h/riscv.hpp ****     // mask set register sstatus
  68:src/../h/riscv.hpp ****     static void ms_sstatus(uint64 mask);
  69:src/../h/riscv.hpp **** 
  70:src/../h/riscv.hpp ****     // mask clear register sstatus
  71:src/../h/riscv.hpp ****     static void mc_sstatus(uint64 mask);
  72:src/../h/riscv.hpp **** 
  73:src/../h/riscv.hpp ****     // read register sstatus
  74:src/../h/riscv.hpp ****     static uint64 r_sstatus();
  75:src/../h/riscv.hpp **** 
GAS LISTING /tmp/ccDEI8Nt.s 			page 3


  76:src/../h/riscv.hpp ****     // write register sstatus
  77:src/../h/riscv.hpp ****     static void w_sstatus(uint64 sstatus);
  78:src/../h/riscv.hpp **** 
  79:src/../h/riscv.hpp ****     // supervisor trap
  80:src/../h/riscv.hpp ****     static void supervisorTrap();
  81:src/../h/riscv.hpp **** 
  82:src/../h/riscv.hpp **** private:
  83:src/../h/riscv.hpp **** 
  84:src/../h/riscv.hpp ****     // supervisor trap handler
  85:src/../h/riscv.hpp ****     static void handleSupervisorTrap();
  86:src/../h/riscv.hpp **** 
  87:src/../h/riscv.hpp **** };
  88:src/../h/riscv.hpp **** 
  89:src/../h/riscv.hpp **** inline uint64 Riscv::r_scause()
  90:src/../h/riscv.hpp **** {
  91:src/../h/riscv.hpp ****     uint64 volatile scause;
  92:src/../h/riscv.hpp ****     __asm__ volatile ("csrr %[scause], scause" : [scause] "=r"(scause));
  93:src/../h/riscv.hpp ****     return scause;
  94:src/../h/riscv.hpp **** }
  95:src/../h/riscv.hpp **** 
  96:src/../h/riscv.hpp **** inline void Riscv::w_scause(uint64 scause)
  97:src/../h/riscv.hpp **** {
  98:src/../h/riscv.hpp ****     __asm__ volatile ("csrw scause, %[scause]" : : [scause] "r"(scause));
  99:src/../h/riscv.hpp **** }
 100:src/../h/riscv.hpp **** 
 101:src/../h/riscv.hpp **** inline uint64 Riscv::r_sepc()
 102:src/../h/riscv.hpp **** {
 103:src/../h/riscv.hpp ****     uint64 volatile sepc;
 104:src/../h/riscv.hpp ****     __asm__ volatile ("csrr %[sepc], sepc" : [sepc] "=r"(sepc));
 105:src/../h/riscv.hpp ****     return sepc;
 106:src/../h/riscv.hpp **** }
 107:src/../h/riscv.hpp **** 
 108:src/../h/riscv.hpp **** inline void Riscv::w_sepc(uint64 sepc)
 109:src/../h/riscv.hpp **** {
 110:src/../h/riscv.hpp ****     __asm__ volatile ("csrw sepc, %[sepc]" : : [sepc] "r"(sepc));
 111:src/../h/riscv.hpp **** }
 112:src/../h/riscv.hpp **** 
 113:src/../h/riscv.hpp **** inline uint64 Riscv::r_stvec()
 114:src/../h/riscv.hpp **** {
 115:src/../h/riscv.hpp ****     uint64 volatile stvec;
 116:src/../h/riscv.hpp ****     __asm__ volatile ("csrr %[stvec], stvec" : [stvec] "=r"(stvec));
 117:src/../h/riscv.hpp ****     return stvec;
 118:src/../h/riscv.hpp **** }
 119:src/../h/riscv.hpp **** 
 120:src/../h/riscv.hpp **** inline void Riscv::w_stvec(uint64 stvec)
 121:src/../h/riscv.hpp **** {
 122:src/../h/riscv.hpp ****     __asm__ volatile ("csrw stvec, %[stvec]" : : [stvec] "r"(stvec));
 123:src/../h/riscv.hpp **** }
 124:src/../h/riscv.hpp **** 
 125:src/../h/riscv.hpp **** inline uint64 Riscv::r_stval()
 126:src/../h/riscv.hpp **** {
 127:src/../h/riscv.hpp ****     uint64 volatile stval;
 128:src/../h/riscv.hpp ****     __asm__ volatile ("csrr %[stval], stval" : [stval] "=r"(stval));
 129:src/../h/riscv.hpp ****     return stval;
 130:src/../h/riscv.hpp **** }
 131:src/../h/riscv.hpp **** 
 132:src/../h/riscv.hpp **** inline void Riscv::w_stval(uint64 stval)
GAS LISTING /tmp/ccDEI8Nt.s 			page 4


 133:src/../h/riscv.hpp **** {
 134:src/../h/riscv.hpp ****     __asm__ volatile ("csrw stval, %[stval]" : : [stval] "r"(stval));
 135:src/../h/riscv.hpp **** }
 136:src/../h/riscv.hpp **** 
 137:src/../h/riscv.hpp **** inline void Riscv::ms_sip(uint64 mask)
 138:src/../h/riscv.hpp **** {
 139:src/../h/riscv.hpp ****     __asm__ volatile ("csrs sip, %[mask]" : : [mask] "r"(mask));
 140:src/../h/riscv.hpp **** }
 141:src/../h/riscv.hpp **** 
 142:src/../h/riscv.hpp **** inline void Riscv::mc_sip(uint64 mask)
 143:src/../h/riscv.hpp **** {
 144:src/../h/riscv.hpp ****     __asm__ volatile ("csrc sip, %[mask]" : : [mask] "r"(mask));
 145:src/../h/riscv.hpp **** }
 146:src/../h/riscv.hpp **** 
 147:src/../h/riscv.hpp **** inline uint64 Riscv::r_sip()
 148:src/../h/riscv.hpp **** {
 149:src/../h/riscv.hpp ****     uint64 volatile sip;
 150:src/../h/riscv.hpp ****     __asm__ volatile ("csrr %[sip], sip" : [sip] "=r"(sip));
 151:src/../h/riscv.hpp ****     return sip;
 152:src/../h/riscv.hpp **** }
 153:src/../h/riscv.hpp **** 
 154:src/../h/riscv.hpp **** inline void Riscv::w_sip(uint64 sip)
 155:src/../h/riscv.hpp **** {
 156:src/../h/riscv.hpp ****     __asm__ volatile ("csrw sip, %[sip]" : : [sip] "r"(sip));
 157:src/../h/riscv.hpp **** }
 158:src/../h/riscv.hpp **** 
 159:src/../h/riscv.hpp **** inline void Riscv::ms_sstatus(uint64 mask)
 160:src/../h/riscv.hpp **** {
 161:src/../h/riscv.hpp ****     __asm__ volatile ("csrs sstatus, %[mask]" : : [mask] "r"(mask));
 162:src/../h/riscv.hpp **** }
 163:src/../h/riscv.hpp **** 
 164:src/../h/riscv.hpp **** inline void Riscv::mc_sstatus(uint64 mask)
 165:src/../h/riscv.hpp **** {
 166:src/../h/riscv.hpp ****     __asm__ volatile ("csrc sstatus, %[mask]" : : [mask] "r"(mask));
 167:src/../h/riscv.hpp **** }
 168:src/../h/riscv.hpp **** 
 169:src/../h/riscv.hpp **** inline uint64 Riscv::r_sstatus()
 170:src/../h/riscv.hpp **** {
 171:src/../h/riscv.hpp ****     uint64 volatile sstatus;
  32              		.loc 2 171 5
 172:src/../h/riscv.hpp ****     __asm__ volatile ("csrr %[sstatus], sstatus" : [sstatus] "=r"(sstatus));
  33              		.loc 2 172 5
  34              		.loc 2 172 76 is_stmt 0
  35              	#APP
  36              	# 172 "src/../h/riscv.hpp" 1
 173              	    return sstatus;
  37              		csrr a5, sstatus
  38              	# 0 "" 2
  39              	#NO_APP
  40 0020 233CF4FC 		sd	a5,-40(s0)
  41              		.loc 2 173 5 is_stmt 1
  42              		.loc 2 173 12 is_stmt 0
  43 0024 033984FD 		ld	s2,-40(s0)
  44              	.LVL1:
  45              	.LBE9:
  46              	.LBE8:
  10:src/print.cpp ****     Riscv::mc_sstatus(Riscv::SSTATUS_SIE);
GAS LISTING /tmp/ccDEI8Nt.s 			page 5


  47              		.loc 1 10 5 is_stmt 1
  48              	.LBB10:
  49              	.LBB11:
 166:src/../h/riscv.hpp **** }
  50              		.loc 2 166 5
 166:src/../h/riscv.hpp **** }
  51              		.loc 2 166 68 is_stmt 0
  52 0028 93072000 		li	a5,2
  53              	#APP
  54              	# 166 "src/../h/riscv.hpp" 1
  55              		csrc sstatus, a5
  56              	# 0 "" 2
  57              	.LVL2:
  58              	#NO_APP
  59              	.L3:
  60              	.LBE11:
  61              	.LBE10:
  11:src/print.cpp ****     while (*string != '\0')
  62              		.loc 1 11 5 is_stmt 1
  63              		.loc 1 11 20
  64              		.loc 1 11 12 is_stmt 0
  65 0030 03C50400 		lbu	a0,0(s1)
  66              		.loc 1 11 20
  67 0034 630A0500 		beqz	a0,.L2
  12:src/print.cpp ****     {
  13:src/print.cpp ****         myConsole::putc(*string);
  68              		.loc 1 13 9 is_stmt 1
  69              		.loc 1 13 24 is_stmt 0
  70 0038 97000000 		call	_ZN9myConsole4putcEc@plt
  70      E7800000 
  71              	.LVL3:
  14:src/print.cpp ****         string++;
  72              		.loc 1 14 9 is_stmt 1
  73              		.loc 1 14 15 is_stmt 0
  74 0040 93841400 		addi	s1,s1,1
  75              	.LVL4:
  11:src/print.cpp ****     while (*string != '\0')
  76              		.loc 1 11 5
  77 0044 6FF0DFFE 		j	.L3
  78              	.L2:
  15:src/print.cpp ****     }
  16:src/print.cpp ****     Riscv::ms_sstatus(sstatus & Riscv::SSTATUS_SIE ? Riscv::SSTATUS_SIE : 0);
  79              		.loc 1 16 5 is_stmt 1
  80              		.loc 1 16 52 is_stmt 0
  81 0048 1B090900 		sext.w	s2,s2
  82              	.LVL5:
  83              		.loc 1 16 22
  84 004c 13792900 		andi	s2,s2,2
  85 0050 1B090900 		sext.w	s2,s2
  86              	.LVL6:
  87              	.LBB12:
  88              	.LBB13:
 161:src/../h/riscv.hpp **** }
  89              		.loc 2 161 5 is_stmt 1
 161:src/../h/riscv.hpp **** }
  90              		.loc 2 161 68 is_stmt 0
  91              	#APP
GAS LISTING /tmp/ccDEI8Nt.s 			page 6


  92              	# 161 "src/../h/riscv.hpp" 1
  93              		csrs sstatus, s2
  94              	# 0 "" 2
  95              	.LVL7:
  96              	#NO_APP
  97              	.LBE13:
  98              	.LBE12:
  17:src/print.cpp **** }
  99              		.loc 1 17 1
 100 0058 83308102 		ld	ra,40(sp)
 101              		.cfi_restore 1
 102 005c 03340102 		ld	s0,32(sp)
 103              		.cfi_restore 8
 104              		.cfi_def_cfa 2, 48
 105 0060 83348101 		ld	s1,24(sp)
 106              		.cfi_restore 9
 107              	.LVL8:
 108 0064 03390101 		ld	s2,16(sp)
 109              		.cfi_restore 18
 110 0068 13010103 		addi	sp,sp,48
 111              		.cfi_def_cfa_offset 0
 112 006c 67800000 		jr	ra
 113              		.cfi_endproc
 114              	.LFE90:
 116              		.align	2
 117              		.globl	_Z12printIntegerm
 119              	_Z12printIntegerm:
 120              	.LFB91:
  18:src/print.cpp **** 
  19:src/print.cpp **** void printInteger(uint64 integer)
  20:src/print.cpp **** {
 121              		.loc 1 20 1 is_stmt 1
 122              		.cfi_startproc
 123              	.LVL9:
 124 0070 130101FD 		addi	sp,sp,-48
 125              		.cfi_def_cfa_offset 48
 126 0074 23341102 		sd	ra,40(sp)
 127 0078 23308102 		sd	s0,32(sp)
 128 007c 233C9100 		sd	s1,24(sp)
 129              		.cfi_offset 1, -8
 130              		.cfi_offset 8, -16
 131              		.cfi_offset 9, -24
 132 0080 13040103 		addi	s0,sp,48
 133              		.cfi_def_cfa 8, 0
  21:src/print.cpp **** //    uint64 sstatus = Riscv::r_sstatus();
  22:src/print.cpp **** //    Riscv::mc_sstatus(Riscv::SSTATUS_SIE);
  23:src/print.cpp ****     static char digits[] = "0123456789";
 134              		.loc 1 23 5
  24:src/print.cpp ****     char buf[16];
 135              		.loc 1 24 5
  25:src/print.cpp ****     int i, neg;
 136              		.loc 1 25 5
  26:src/print.cpp ****     uint x;
 137              		.loc 1 26 5
  27:src/print.cpp **** 
  28:src/print.cpp ****     neg = 0;
 138              		.loc 1 28 5
GAS LISTING /tmp/ccDEI8Nt.s 			page 7


 139              	.LVL10:
  29:src/print.cpp ****     if (integer < 0)
 140              		.loc 1 29 5
  30:src/print.cpp ****     {
  31:src/print.cpp ****         neg = 1;
  32:src/print.cpp ****         x = -integer;
  33:src/print.cpp ****     } else
  34:src/print.cpp ****     {
  35:src/print.cpp ****         x = integer;
 141              		.loc 1 35 9
 142              		.loc 1 35 11 is_stmt 0
 143 0084 1B050500 		sext.w	a0,a0
 144              	.LVL11:
  36:src/print.cpp ****     }
  37:src/print.cpp **** 
  38:src/print.cpp ****     i = 0;
 145              		.loc 1 38 5 is_stmt 1
 146              		.loc 1 38 7 is_stmt 0
 147 0088 93040000 		li	s1,0
 148              	.LVL12:
 149              	.L6:
  39:src/print.cpp ****     do
 150              		.loc 1 39 5 is_stmt 1
  40:src/print.cpp ****     {
  41:src/print.cpp ****         buf[i++] = digits[x % 10];
 151              		.loc 1 41 9
 152              		.loc 1 41 29 is_stmt 0
 153 008c 1306A000 		li	a2,10
 154 0090 3B77C502 		remuw	a4,a0,a2
 155              	.LVL13:
 156              		.loc 1 41 33
 157 0094 93160702 		slli	a3,a4,32
 158 0098 93D60602 		srli	a3,a3,32
 159 009c 17070000 		lla	a4,.LANCHOR0
 159      13070700 
 160 00a4 3307D700 		add	a4,a4,a3
 161 00a8 03470700 		lbu	a4,0(a4)
 162              		.loc 1 41 18
 163 00ac 930604FE 		addi	a3,s0,-32
 164 00b0 B3879600 		add	a5,a3,s1
 165 00b4 9B841400 		addiw	s1,s1,1
 166              	.LVL14:
 167 00b8 2388E7FE 		sb	a4,-16(a5)
  42:src/print.cpp ****     } while ((x /= 10) != 0);
 168              		.loc 1 42 24 is_stmt 1
 169 00bc 1B070500 		sext.w	a4,a0
 170              		.loc 1 42 17 is_stmt 0
 171 00c0 3B55C502 		divuw	a0,a0,a2
 172              	.LVL15:
 173              		.loc 1 42 24
 174 00c4 93079000 		li	a5,9
 175 00c8 E3E2E7FC 		bgtu	a4,a5,.L6
 176              	.LVL16:
 177              	.L8:
  43:src/print.cpp ****     if (neg)
  44:src/print.cpp ****         buf[i++] = '-';
  45:src/print.cpp **** 
GAS LISTING /tmp/ccDEI8Nt.s 			page 8


  46:src/print.cpp ****     while (--i >= 0) { putc(buf[i]); }
 178              		.loc 1 46 5 is_stmt 1
 179              		.loc 1 46 16
 180 00cc 9B84F4FF 		addiw	s1,s1,-1
 181              	.LVL17:
 182 00d0 63CE0400 		bltz	s1,.L5
 183              		.loc 1 46 24 discriminator 1
 184              		.loc 1 46 28 is_stmt 0 discriminator 1
 185 00d4 930704FE 		addi	a5,s0,-32
 186 00d8 B3879700 		add	a5,a5,s1
 187 00dc 03C507FF 		lbu	a0,-16(a5)
 188 00e0 97000000 		call	_Z4putcc@plt
 188      E7800000 
 189              	.LVL18:
 190 00e8 6FF05FFE 		j	.L8
 191              	.L5:
  47:src/print.cpp **** //    Riscv::ms_sstatus(sstatus & Riscv::SSTATUS_SIE ? Riscv::SSTATUS_SIE : 0);
  48:src/print.cpp **** }
 192              		.loc 1 48 1
 193 00ec 83308102 		ld	ra,40(sp)
 194              		.cfi_restore 1
 195 00f0 03340102 		ld	s0,32(sp)
 196              		.cfi_restore 8
 197              		.cfi_def_cfa 2, 48
 198 00f4 83348101 		ld	s1,24(sp)
 199              		.cfi_restore 9
 200 00f8 13010103 		addi	sp,sp,48
 201              		.cfi_def_cfa_offset 0
 202 00fc 67800000 		jr	ra
 203              		.cfi_endproc
 204              	.LFE91:
 206              		.align	2
 207              		.globl	_Z16printIntegerTrapm
 209              	_Z16printIntegerTrapm:
 210              	.LFB92:
  49:src/print.cpp **** 
  50:src/print.cpp **** void printIntegerTrap(uint64 integer)
  51:src/print.cpp **** {
 211              		.loc 1 51 1 is_stmt 1
 212              		.cfi_startproc
 213              	.LVL19:
 214 0100 130101FD 		addi	sp,sp,-48
 215              		.cfi_def_cfa_offset 48
 216 0104 23341102 		sd	ra,40(sp)
 217 0108 23308102 		sd	s0,32(sp)
 218 010c 233C9100 		sd	s1,24(sp)
 219              		.cfi_offset 1, -8
 220              		.cfi_offset 8, -16
 221              		.cfi_offset 9, -24
 222 0110 13040103 		addi	s0,sp,48
 223              		.cfi_def_cfa 8, 0
  52:src/print.cpp **** //    uint64 sstatus = Riscv::r_sstatus();
  53:src/print.cpp **** //    Riscv::mc_sstatus(Riscv::SSTATUS_SIE);
  54:src/print.cpp ****     static char digits[] = "0123456789";
 224              		.loc 1 54 5
  55:src/print.cpp ****     char buf[16];
 225              		.loc 1 55 5
GAS LISTING /tmp/ccDEI8Nt.s 			page 9


  56:src/print.cpp ****     int i, neg;
 226              		.loc 1 56 5
  57:src/print.cpp ****     uint x;
 227              		.loc 1 57 5
  58:src/print.cpp **** 
  59:src/print.cpp ****     neg = 0;
 228              		.loc 1 59 5
 229              	.LVL20:
  60:src/print.cpp ****     if (integer < 0)
 230              		.loc 1 60 5
  61:src/print.cpp ****     {
  62:src/print.cpp ****         neg = 1;
  63:src/print.cpp ****         x = -integer;
  64:src/print.cpp ****     } else
  65:src/print.cpp ****     {
  66:src/print.cpp ****         x = integer;
 231              		.loc 1 66 9
 232              		.loc 1 66 11 is_stmt 0
 233 0114 1B050500 		sext.w	a0,a0
 234              	.LVL21:
  67:src/print.cpp ****     }
  68:src/print.cpp **** 
  69:src/print.cpp ****     i = 0;
 235              		.loc 1 69 5 is_stmt 1
 236              		.loc 1 69 7 is_stmt 0
 237 0118 93040000 		li	s1,0
 238              	.LVL22:
 239              	.L11:
  70:src/print.cpp ****     do
 240              		.loc 1 70 5 is_stmt 1
  71:src/print.cpp ****     {
  72:src/print.cpp ****         buf[i++] = digits[x % 10];
 241              		.loc 1 72 9
 242              		.loc 1 72 29 is_stmt 0
 243 011c 1306A000 		li	a2,10
 244 0120 3B77C502 		remuw	a4,a0,a2
 245              	.LVL23:
 246              		.loc 1 72 33
 247 0124 93160702 		slli	a3,a4,32
 248 0128 93D60602 		srli	a3,a3,32
 249 012c 17070000 		lla	a4,.LANCHOR0
 249      13070700 
 250 0134 3307D700 		add	a4,a4,a3
 251 0138 03470701 		lbu	a4,16(a4)
 252              		.loc 1 72 18
 253 013c 930604FE 		addi	a3,s0,-32
 254 0140 B3879600 		add	a5,a3,s1
 255 0144 9B841400 		addiw	s1,s1,1
 256              	.LVL24:
 257 0148 2388E7FE 		sb	a4,-16(a5)
  73:src/print.cpp ****     } while ((x /= 10) != 0);
 258              		.loc 1 73 24 is_stmt 1
 259 014c 1B070500 		sext.w	a4,a0
 260              		.loc 1 73 17 is_stmt 0
 261 0150 3B55C502 		divuw	a0,a0,a2
 262              	.LVL25:
 263              		.loc 1 73 24
GAS LISTING /tmp/ccDEI8Nt.s 			page 10


 264 0154 93079000 		li	a5,9
 265 0158 E3E2E7FC 		bgtu	a4,a5,.L11
 266              	.LVL26:
 267              	.L13:
  74:src/print.cpp ****     if (neg)
  75:src/print.cpp ****         buf[i++] = '-';
  76:src/print.cpp **** 
  77:src/print.cpp ****     while (--i >= 0) { myConsole::putc(buf[i]); }
 268              		.loc 1 77 5 is_stmt 1
 269              		.loc 1 77 16
 270 015c 9B84F4FF 		addiw	s1,s1,-1
 271              	.LVL27:
 272 0160 63CE0400 		bltz	s1,.L10
 273              		.loc 1 77 24 discriminator 1
 274              		.loc 1 77 39 is_stmt 0 discriminator 1
 275 0164 930704FE 		addi	a5,s0,-32
 276 0168 B3879700 		add	a5,a5,s1
 277 016c 03C507FF 		lbu	a0,-16(a5)
 278 0170 97000000 		call	_ZN9myConsole4putcEc@plt
 278      E7800000 
 279              	.LVL28:
 280 0178 6FF05FFE 		j	.L13
 281              	.L10:
  78:src/print.cpp **** //    Riscv::ms_sstatus(sstatus & Riscv::SSTATUS_SIE ? Riscv::SSTATUS_SIE : 0);
  79:src/print.cpp **** }...
 282              		.loc 1 79 1
 283 017c 83308102 		ld	ra,40(sp)
 284              		.cfi_restore 1
 285 0180 03340102 		ld	s0,32(sp)
 286              		.cfi_restore 8
 287              		.cfi_def_cfa 2, 48
 288 0184 83348101 		ld	s1,24(sp)
 289              		.cfi_restore 9
 290 0188 13010103 		addi	sp,sp,48
 291              		.cfi_def_cfa_offset 0
 292 018c 67800000 		jr	ra
 293              		.cfi_endproc
 294              	.LFE92:
 296              		.section	.rodata
 297              		.align	3
 298              		.set	.LANCHOR0,. + 0
 301              	_ZZ12printIntegermE6digits:
 302 0000 30313233 		.string	"0123456789"
 302      34353637 
 302      383900
 303 000b 00000000 		.zero	5
 303      00
 306              	_ZZ16printIntegerTrapmE6digits:
 307 0010 30313233 		.string	"0123456789"
 307      34353637 
 307      383900
 308              		.text
 309              	.Letext0:
 310              		.file 3 "src/../h/../lib/hw.h"
 311              		.file 4 "src/../h/../h/tcb.hpp"
 312              		.file 5 "src/../h/../h/../h/../h/threadList.hpp"
 313              		.file 6 "src/../h/../h/../h/sem.hpp"
GAS LISTING /tmp/ccDEI8Nt.s 			page 11


 314              		.file 7 "src/../h/../h/sleepingThreadList.hpp"
 315              		.file 8 "src/../h/../h/syscall_c.hpp"
 316              		.file 9 "src/../h/consoleBuffer.hpp"
 317              		.file 10 "src/../h/myConsole.hpp"
GAS LISTING /tmp/ccDEI8Nt.s 			page 12

