GAS LISTING /tmp/ccqa7DyH.s 			page 1


   1              		.file	"scheduler.cpp"
   2              		.option pic
   3              		.option norelax
   4              		.text
   5              	.Ltext0:
   6              		.align	2
   7              		.globl	_ZN9Scheduler3getEv
   9              	_ZN9Scheduler3getEv:
  10              	.LFB62:
  11              		.file 1 "src/scheduler.cpp"
   1:src/scheduler.cpp **** #include "../h/scheduler.hpp"
   2:src/scheduler.cpp **** #include "../h/tcb.hpp"
   3:src/scheduler.cpp **** 
   4:src/scheduler.cpp **** TCB *Scheduler::get()
   5:src/scheduler.cpp **** {
  12              		.loc 1 5 1
  13              		.cfi_startproc
  14 0000 130101FF 		addi	sp,sp,-16
  15              		.cfi_def_cfa_offset 16
  16 0004 23348100 		sd	s0,8(sp)
  17              		.cfi_offset 8, -8
  18 0008 13040101 		addi	s0,sp,16
  19              		.cfi_def_cfa 8, 0
   6:src/scheduler.cpp ****     TCB* next = TCB::running->next;
  20              		.loc 1 6 5
  21              		.loc 1 6 31 is_stmt 0
  22 000c 97070000 		la	a5,_ZN3TCB7runningE
  22      83B70700 
  23 0014 83B70700 		ld	a5,0(a5)
  24              		.loc 1 6 10
  25 0018 03B50705 		ld	a0,80(a5)
  26              	.LVL0:
   7:src/scheduler.cpp ****     if(!next) return TCB::running;
  27              		.loc 1 7 5 is_stmt 1
  28 001c 630A0500 		beqz	a0,.L3
   8:src/scheduler.cpp ****     TCB::running->next = nullptr; // za slucaj da je ubacena opet u red, ostace joj next, a potenci
  29              		.loc 1 8 5
  30              		.loc 1 8 24 is_stmt 0
  31 0020 23B80704 		sd	zero,80(a5)
   9:src/scheduler.cpp ****     return next;
  32              		.loc 1 9 5 is_stmt 1
  33              	.LVL1:
  34              	.L1:
  10:src/scheduler.cpp **** }
  35              		.loc 1 10 1 is_stmt 0
  36 0024 03348100 		ld	s0,8(sp)
  37              		.cfi_remember_state
  38              		.cfi_restore 8
  39              		.cfi_def_cfa 2, 16
  40 0028 13010101 		addi	sp,sp,16
  41              		.cfi_def_cfa_offset 0
  42 002c 67800000 		jr	ra
  43              	.LVL2:
  44              	.L3:
  45              		.cfi_restore_state
   7:src/scheduler.cpp ****     TCB::running->next = nullptr; // za slucaj da je ubacena opet u red, ostace joj next, a potenci
  46              		.loc 1 7 27
GAS LISTING /tmp/ccqa7DyH.s 			page 2


  47 0030 13850700 		mv	a0,a5
  48              	.LVL3:
  49 0034 6FF01FFF 		j	.L1
  50              		.cfi_endproc
  51              	.LFE62:
  53              		.align	2
  54              		.globl	_ZN9Scheduler3putEP3TCB
  56              	_ZN9Scheduler3putEP3TCB:
  57              	.LFB63:
  11:src/scheduler.cpp **** 
  12:src/scheduler.cpp **** void Scheduler::put(TCB *tcb)
  13:src/scheduler.cpp **** {
  58              		.loc 1 13 1 is_stmt 1
  59              		.cfi_startproc
  60              	.LVL4:
  61 0038 130101FF 		addi	sp,sp,-16
  62              		.cfi_def_cfa_offset 16
  63 003c 23348100 		sd	s0,8(sp)
  64              		.cfi_offset 8, -8
  65 0040 13040101 		addi	s0,sp,16
  66              		.cfi_def_cfa 8, 0
  14:src/scheduler.cpp ****     if(!tcb->tail){
  67              		.loc 1 14 5
  68              		.loc 1 14 8 is_stmt 0
  69 0044 97070000 		la	a5,_ZN3TCB4tailE
  69      83B70700 
  70 004c 83B70700 		ld	a5,0(a5)
  71              		.loc 1 14 5
  72 0050 63800702 		beqz	a5,.L9
  15:src/scheduler.cpp ****         TCB::running->next = tcb;
  16:src/scheduler.cpp ****         TCB::tail = tcb;
  17:src/scheduler.cpp ****         return;
  18:src/scheduler.cpp ****     }
  19:src/scheduler.cpp ****     tcb->tail->next = tcb;
  73              		.loc 1 19 5 is_stmt 1
  74              		.loc 1 19 21 is_stmt 0
  75 0054 23B8A704 		sd	a0,80(a5)
  20:src/scheduler.cpp ****     tcb->tail = tcb;
  76              		.loc 1 20 5 is_stmt 1
  77              		.loc 1 20 15 is_stmt 0
  78 0058 97070000 		la	a5,_ZN3TCB4tailE
  78      83B70700 
  79 0060 23B0A700 		sd	a0,0(a5)
  80              	.L5:
  21:src/scheduler.cpp **** }...
  81              		.loc 1 21 1
  82 0064 03348100 		ld	s0,8(sp)
  83              		.cfi_remember_state
  84              		.cfi_restore 8
  85              		.cfi_def_cfa 2, 16
  86 0068 13010101 		addi	sp,sp,16
  87              		.cfi_def_cfa_offset 0
  88 006c 67800000 		jr	ra
  89              	.L9:
  90              		.cfi_restore_state
  15:src/scheduler.cpp ****         TCB::running->next = tcb;
  91              		.loc 1 15 9 is_stmt 1
GAS LISTING /tmp/ccqa7DyH.s 			page 3


  15:src/scheduler.cpp ****         TCB::running->next = tcb;
  92              		.loc 1 15 23 is_stmt 0
  93 0070 97070000 		la	a5,_ZN3TCB7runningE
  93      83B70700 
  94 0078 83B70700 		ld	a5,0(a5)
  15:src/scheduler.cpp ****         TCB::running->next = tcb;
  95              		.loc 1 15 28
  96 007c 23B8A704 		sd	a0,80(a5)
  16:src/scheduler.cpp ****         TCB::tail = tcb;
  97              		.loc 1 16 9 is_stmt 1
  16:src/scheduler.cpp ****         TCB::tail = tcb;
  98              		.loc 1 16 19 is_stmt 0
  99 0080 97070000 		la	a5,_ZN3TCB4tailE
  99      83B70700 
 100 0088 23B0A700 		sd	a0,0(a5)
  17:src/scheduler.cpp ****         return;
 101              		.loc 1 17 9 is_stmt 1
 102 008c 6FF09FFD 		j	.L5
 103              		.cfi_endproc
 104              	.LFE63:
 106              	.Letext0:
 107              		.file 2 "src/../h/tcb.hpp"
 108              		.file 3 "src/../h/../lib/hw.h"
 109              		.file 4 "src/../h/scheduler.hpp"
 110              		.file 5 "src/../h/sleepingThreadList.hpp"
GAS LISTING /tmp/ccqa7DyH.s 			page 4

