GAS LISTING /tmp/cc1VwR5J.s 			page 1


   1              		.file	"sem.cpp"
   2              		.option pic
   3              		.option norelax
   4              		.text
   5              	.Ltext0:
   6              		.align	2
   8              	_ZL21addToTimeBlockedQueueP4Elem:
   9              	.LFB62:
  10              		.file 1 "src/sem.cpp"
   1:src/sem.cpp   **** #include "../h/sem.hpp"
   2:src/sem.cpp   **** #include "../h/memoryAllocator.hpp"
   3:src/sem.cpp   **** 
   4:src/sem.cpp   **** Elem* sem::timeBlockedQueue = nullptr;
   5:src/sem.cpp   **** 
   6:src/sem.cpp   **** static void addToTimeBlockedQueue(Elem* blockedElem) {
  11              		.loc 1 6 54
  12              		.cfi_startproc
  13              	.LVL0:
  14 0000 130101FF 		addi	sp,sp,-16
  15              		.cfi_def_cfa_offset 16
  16 0004 23348100 		sd	s0,8(sp)
  17              		.cfi_offset 8, -8
  18 0008 13040101 		addi	s0,sp,16
  19              		.cfi_def_cfa 8, 0
   7:src/sem.cpp   ****     if (!sem::timeBlockedQueue) {
  20              		.loc 1 7 5
  21              	.LBB30:
  22              		.loc 1 7 9 is_stmt 0
  23 000c 97070000 		ld	a5,.LANCHOR0
  23      83B70700 
  24              		.loc 1 7 5
  25 0014 63800702 		beqz	a5,.L5
  26              	.L2:
  27              	.LVL1:
  28              	.LBB31:
   8:src/sem.cpp   ****         sem::timeBlockedQueue = blockedElem;
   9:src/sem.cpp   ****     } else {
  10:src/sem.cpp   ****         Elem* temp = sem::timeBlockedQueue;
  11:src/sem.cpp   ****         while (temp->next) {
  29              		.loc 1 11 9 is_stmt 1
  30              		.loc 1 11 22
  31 0018 13870700 		mv	a4,a5
  32 001c 83B70701 		ld	a5,16(a5)
  33              	.LVL2:
  34 0020 E39C07FE 		bnez	a5,.L2
  12:src/sem.cpp   ****             temp = temp->next;
  13:src/sem.cpp   ****         }
  14:src/sem.cpp   ****         temp->next = blockedElem;
  35              		.loc 1 14 9
  36              		.loc 1 14 20 is_stmt 0
  37 0024 2338A700 		sd	a0,16(a4)
  38              	.LVL3:
  39              	.L1:
  40              	.LBE31:
  41              	.LBE30:
  15:src/sem.cpp   ****     }
  16:src/sem.cpp   **** }
GAS LISTING /tmp/cc1VwR5J.s 			page 2


  42              		.loc 1 16 1
  43 0028 03348100 		ld	s0,8(sp)
  44              		.cfi_remember_state
  45              		.cfi_restore 8
  46              		.cfi_def_cfa 2, 16
  47 002c 13010101 		addi	sp,sp,16
  48              		.cfi_def_cfa_offset 0
  49 0030 67800000 		jr	ra
  50              	.L5:
  51              		.cfi_restore_state
  52              	.LBB32:
   8:src/sem.cpp   ****     } else {
  53              		.loc 1 8 9 is_stmt 1
   8:src/sem.cpp   ****     } else {
  54              		.loc 1 8 31 is_stmt 0
  55 0034 97070000 		sd	a0,.LANCHOR0,a5
  55      23B0A700 
  56 003c 6FF0DFFE 		j	.L1
  57              	.LBE32:
  58              		.cfi_endproc
  59              	.LFE62:
  61              		.align	2
  63              	_ZL26removeFromTimeBlockedQueueP3TCB:
  64              	.LFB63:
  17:src/sem.cpp   **** 
  18:src/sem.cpp   **** static bool removeFromTimeBlockedQueue(TCB* tcb) {
  65              		.loc 1 18 50 is_stmt 1
  66              		.cfi_startproc
  67              	.LVL4:
  68 0040 13070500 		mv	a4,a0
  19:src/sem.cpp   ****     if (!sem::timeBlockedQueue) {
  69              		.loc 1 19 5
  70              		.loc 1 19 9 is_stmt 0
  71 0044 17050000 		ld	a0,.LANCHOR0
  71      03350500 
  72              	.LVL5:
  73              		.loc 1 19 5
  74 004c 630E0506 		beqz	a0,.L10
  18:src/sem.cpp   ****     if (!sem::timeBlockedQueue) {
  75              		.loc 1 18 50
  76 0050 130101FF 		addi	sp,sp,-16
  77              		.cfi_def_cfa_offset 16
  78 0054 23341100 		sd	ra,8(sp)
  79 0058 23308100 		sd	s0,0(sp)
  80              		.cfi_offset 1, -8
  81              		.cfi_offset 8, -16
  82 005c 13040101 		addi	s0,sp,16
  83              		.cfi_def_cfa 8, 0
  20:src/sem.cpp   ****         return false;
  21:src/sem.cpp   ****     }
  22:src/sem.cpp   **** 
  23:src/sem.cpp   ****     if (sem::timeBlockedQueue->tcb == tcb) {
  84              		.loc 1 23 5 is_stmt 1
  85              	.LBB33:
  86              		.loc 1 23 32 is_stmt 0
  87 0060 83370500 		ld	a5,0(a0)
  88              		.loc 1 23 5
GAS LISTING /tmp/cc1VwR5J.s 			page 3


  89 0064 6388E702 		beq	a5,a4,.L16
  90              	.L8:
  91              	.LVL6:
  92              	.LBE33:
  24:src/sem.cpp   ****         Elem* temp = sem::timeBlockedQueue;
  25:src/sem.cpp   ****         sem::timeBlockedQueue = sem::timeBlockedQueue->next;
  26:src/sem.cpp   ****         delete temp;
  27:src/sem.cpp   ****         return true;
  28:src/sem.cpp   ****     }
  29:src/sem.cpp   **** 
  30:src/sem.cpp   ****     Elem* current = sem::timeBlockedQueue;
  31:src/sem.cpp   ****     while (current->next && current->next->tcb != tcb) {
  93              		.loc 1 31 5 is_stmt 1
  94              		.loc 1 31 26
  95 0068 93060500 		mv	a3,a0
  96              		.loc 1 31 21 is_stmt 0
  97 006c 03350501 		ld	a0,16(a0)
  98              	.LVL7:
  99              		.loc 1 31 26
 100 0070 63060500 		beqz	a0,.L9
 101              		.loc 1 31 44 discriminator 1
 102 0074 83370500 		ld	a5,0(a0)
 103              		.loc 1 31 26 discriminator 1
 104 0078 E398E7FE 		bne	a5,a4,.L8
 105              	.L9:
  32:src/sem.cpp   ****         current = current->next;
  33:src/sem.cpp   ****     }
  34:src/sem.cpp   **** 
  35:src/sem.cpp   ****     if (current->next) {
 106              		.loc 1 35 5 is_stmt 1
 107              	.LBB35:
 108 007c 631A0502 		bnez	a0,.L17
 109              	.LBE35:
  36:src/sem.cpp   ****         Elem* temp = current->next;
  37:src/sem.cpp   ****         current->next = current->next->next;
  38:src/sem.cpp   ****         delete temp;
  39:src/sem.cpp   ****         return true;
  40:src/sem.cpp   ****     }
  41:src/sem.cpp   **** 
  42:src/sem.cpp   ****     return false;
 110              		.loc 1 42 12 is_stmt 0
 111 0080 13050000 		li	a0,0
 112              	.LVL8:
 113              	.L7:
  43:src/sem.cpp   **** }
 114              		.loc 1 43 1
 115 0084 83308100 		ld	ra,8(sp)
 116              		.cfi_remember_state
 117              		.cfi_restore 1
 118 0088 03340100 		ld	s0,0(sp)
 119              		.cfi_restore 8
 120              		.cfi_def_cfa 2, 16
 121 008c 13010101 		addi	sp,sp,16
 122              		.cfi_def_cfa_offset 0
 123 0090 67800000 		jr	ra
 124              	.LVL9:
 125              	.L16:
GAS LISTING /tmp/cc1VwR5J.s 			page 4


 126              		.cfi_restore_state
 127              	.LBB37:
 128              	.LBB34:
  24:src/sem.cpp   ****         sem::timeBlockedQueue = sem::timeBlockedQueue->next;
 129              		.loc 1 24 9 is_stmt 1
  25:src/sem.cpp   ****         delete temp;
 130              		.loc 1 25 9
  25:src/sem.cpp   ****         delete temp;
 131              		.loc 1 25 56 is_stmt 0
 132 0094 83370501 		ld	a5,16(a0)
  25:src/sem.cpp   ****         delete temp;
 133              		.loc 1 25 31
 134 0098 17070000 		sd	a5,.LANCHOR0,a4
 134      2330F700 
 135              	.LVL10:
  26:src/sem.cpp   ****         return true;
 136              		.loc 1 26 9 is_stmt 1
  26:src/sem.cpp   ****         return true;
 137              		.loc 1 26 16 is_stmt 0
 138 00a0 97000000 		call	_ZdlPv@plt
 138      E7800000 
 139              	.LVL11:
  27:src/sem.cpp   ****     }
 140              		.loc 1 27 9 is_stmt 1
  27:src/sem.cpp   ****     }
 141              		.loc 1 27 16 is_stmt 0
 142 00a8 13051000 		li	a0,1
 143 00ac 6FF09FFD 		j	.L7
 144              	.LVL12:
 145              	.L17:
 146              	.LBE34:
 147              	.LBE37:
 148              	.LBB38:
 149              	.LBB36:
  36:src/sem.cpp   ****         current->next = current->next->next;
 150              		.loc 1 36 9 is_stmt 1
  37:src/sem.cpp   ****         delete temp;
 151              		.loc 1 37 9
  37:src/sem.cpp   ****         delete temp;
 152              		.loc 1 37 40 is_stmt 0
 153 00b0 83370501 		ld	a5,16(a0)
  37:src/sem.cpp   ****         delete temp;
 154              		.loc 1 37 23
 155 00b4 23B8F600 		sd	a5,16(a3)
  38:src/sem.cpp   ****         return true;
 156              		.loc 1 38 9 is_stmt 1
  38:src/sem.cpp   ****         return true;
 157              		.loc 1 38 16 is_stmt 0
 158 00b8 97000000 		call	_ZdlPv@plt
 158      E7800000 
 159              	.LVL13:
  39:src/sem.cpp   ****     }
 160              		.loc 1 39 9 is_stmt 1
  39:src/sem.cpp   ****     }
 161              		.loc 1 39 16 is_stmt 0
 162 00c0 13051000 		li	a0,1
 163 00c4 6FF01FFC 		j	.L7
GAS LISTING /tmp/cc1VwR5J.s 			page 5


 164              	.LVL14:
 165              	.L10:
 166              		.cfi_def_cfa_register 2
 167              		.cfi_restore 1
 168              		.cfi_restore 8
 169              	.LBE36:
 170              	.LBE38:
  20:src/sem.cpp   ****     }
 171              		.loc 1 20 16
 172 00c8 13050000 		li	a0,0
 173              		.loc 1 43 1
 174 00cc 67800000 		ret
 175              		.cfi_endproc
 176              	.LFE63:
 178              		.align	2
 179              		.globl	_ZN3sem5blockEv
 181              	_ZN3sem5blockEv:
 182              	.LFB68:
  44:src/sem.cpp   **** 
  45:src/sem.cpp   **** 
  46:src/sem.cpp   **** int sem::sem_open (sem** handle, int init){
  47:src/sem.cpp   ****     *handle = new sem(init);
  48:src/sem.cpp   ****     if(*handle == nullptr) return -1;
  49:src/sem.cpp   ****     return 0;
  50:src/sem.cpp   **** }
  51:src/sem.cpp   **** 
  52:src/sem.cpp   **** int sem::wait (){
  53:src/sem.cpp   ****     int retVal = 0;
  54:src/sem.cpp   ****     val--;
  55:src/sem.cpp   ****     if(val < 0) retVal = block();
  56:src/sem.cpp   ****     return retVal;
  57:src/sem.cpp   **** }
  58:src/sem.cpp   **** 
  59:src/sem.cpp   **** 
  60:src/sem.cpp   **** int sem::signal (){
  61:src/sem.cpp   ****     int retVal = 0;
  62:src/sem.cpp   ****     val++;
  63:src/sem.cpp   ****     if(val <= 0) retVal = unblock();
  64:src/sem.cpp   ****     return retVal;
  65:src/sem.cpp   **** }
  66:src/sem.cpp   **** 
  67:src/sem.cpp   **** 
  68:src/sem.cpp   **** int sem::timedWait (time_t timeout){
  69:src/sem.cpp   ****     int retVal = 0;
  70:src/sem.cpp   ****     val--;
  71:src/sem.cpp   ****     if(val < 0) retVal = timedBlock(timeout);
  72:src/sem.cpp   ****     return retVal;
  73:src/sem.cpp   **** }
  74:src/sem.cpp   **** 
  75:src/sem.cpp   **** 
  76:src/sem.cpp   **** int sem::block() {
 183              		.loc 1 76 18 is_stmt 1
 184              		.cfi_startproc
 185              	.LVL15:
 186 00d0 130101FE 		addi	sp,sp,-32
 187              		.cfi_def_cfa_offset 32
 188 00d4 233C1100 		sd	ra,24(sp)
GAS LISTING /tmp/cc1VwR5J.s 			page 6


 189 00d8 23388100 		sd	s0,16(sp)
 190 00dc 23349100 		sd	s1,8(sp)
 191              		.cfi_offset 1, -8
 192              		.cfi_offset 8, -16
 193              		.cfi_offset 9, -24
 194 00e0 13040102 		addi	s0,sp,32
 195              		.cfi_def_cfa 8, 0
 196 00e4 93040500 		mv	s1,a0
  77:src/sem.cpp   ****     TCB* blocked = TCB::running;
 197              		.loc 1 77 5
 198              		.loc 1 77 10 is_stmt 0
 199 00e8 97070000 		la	a5,_ZN3TCB7runningE
 199      83B70700 
 200 00f0 83B60700 		ld	a3,0(a5)
 201              	.LVL16:
  78:src/sem.cpp   ****     blockedQueue.addLast(blocked);
 202              		.loc 1 78 5 is_stmt 1
 203              	.LBB39:
 204              	.LBB40:
 205              		.file 2 "src/../h/../h/threadList.hpp"
   1:src/../h/../h/threadList.hpp **** #ifndef OS1_VEZBE07_RISCV_CONTEXT_SWITCH_1_SYNCHRONOUS_THREAD_LIST_HPP
   2:src/../h/../h/threadList.hpp **** #define OS1_VEZBE07_RISCV_CONTEXT_SWITCH_1_SYNCHRONOUS_THREAD_LIST_HPP
   3:src/../h/../h/threadList.hpp **** 
   4:src/../h/../h/threadList.hpp **** #include "../lib/hw.h"
   5:src/../h/../h/threadList.hpp **** #include "memoryAllocator.hpp"
   6:src/../h/../h/threadList.hpp **** #include "tcb.hpp"
   7:src/../h/../h/threadList.hpp **** 
   8:src/../h/../h/threadList.hpp **** class ThreadList {
   9:src/../h/../h/threadList.hpp **** private:
  10:src/../h/../h/threadList.hpp ****     static const int MAX_SIZE = 100;
  11:src/../h/../h/threadList.hpp ****     TCB* list[MAX_SIZE];
  12:src/../h/../h/threadList.hpp ****     int head = 1;
  13:src/../h/../h/threadList.hpp ****     int tail = 1;
  14:src/../h/../h/threadList.hpp ****     int count = 1;
  15:src/../h/../h/threadList.hpp **** 
  16:src/../h/../h/threadList.hpp **** public:
  17:src/../h/../h/threadList.hpp ****     ThreadList() : head(0), tail(0), count(0) {}
  18:src/../h/../h/threadList.hpp **** 
  19:src/../h/../h/threadList.hpp ****     void addLast(TCB* data) {
  20:src/../h/../h/threadList.hpp ****         if (count < MAX_SIZE) {
 206              		.loc 2 20 9
 207              		.loc 2 20 13 is_stmt 0
 208 00f4 83270533 		lw	a5,816(a0)
 209              		.loc 2 20 9
 210 00f8 13073006 		li	a4,99
 211 00fc 6346F702 		bgt	a5,a4,.L19
  21:src/../h/../h/threadList.hpp ****             list[tail] = data;
 212              		.loc 2 21 13 is_stmt 1
 213              		.loc 2 21 18 is_stmt 0
 214 0100 0327C532 		lw	a4,812(a0)
 215              		.loc 2 21 24
 216 0104 13163700 		slli	a2,a4,3
 217 0108 3306C500 		add	a2,a0,a2
 218 010c 2334D600 		sd	a3,8(a2)
  22:src/../h/../h/threadList.hpp ****             tail = (tail + 1) % MAX_SIZE;
 219              		.loc 2 22 13 is_stmt 1
 220              		.loc 2 22 26 is_stmt 0
GAS LISTING /tmp/cc1VwR5J.s 			page 7


 221 0110 1B071700 		addiw	a4,a4,1
 222              		.loc 2 22 31
 223 0114 13064006 		li	a2,100
 224 0118 3B67C702 		remw	a4,a4,a2
 225              		.loc 2 22 18
 226 011c 2326E532 		sw	a4,812(a0)
  23:src/../h/../h/threadList.hpp ****             count++;
 227              		.loc 2 23 13 is_stmt 1
 228              		.loc 2 23 18 is_stmt 0
 229 0120 9B871700 		addiw	a5,a5,1
 230 0124 2328F532 		sw	a5,816(a0)
 231              	.L19:
 232              	.LVL17:
 233              	.LBE40:
 234              	.LBE39:
  79:src/sem.cpp   ****     blocked->blocked = true;
 235              		.loc 1 79 5 is_stmt 1
 236              		.loc 1 79 22 is_stmt 0
 237 0128 93071000 		li	a5,1
 238 012c 238CF604 		sb	a5,88(a3)
  80:src/sem.cpp   ****     TCB::dispatch();
 239              		.loc 1 80 5 is_stmt 1
 240              		.loc 1 80 18 is_stmt 0
 241 0130 97000000 		call	_ZN3TCB8dispatchEv@plt
 241      E7800000 
 242              	.LVL18:
  81:src/sem.cpp   ****     if(handle == nullptr) return -1;
 243              		.loc 1 81 5 is_stmt 1
 244              		.loc 1 81 8 is_stmt 0
 245 0138 83B78433 		ld	a5,824(s1)
 246              		.loc 1 81 5
 247 013c 638E0700 		beqz	a5,.L21
  82:src/sem.cpp   ****     return 0;
 248              		.loc 1 82 12
 249 0140 13050000 		li	a0,0
 250              	.L20:
  83:src/sem.cpp   **** }
 251              		.loc 1 83 1
 252 0144 83308101 		ld	ra,24(sp)
 253              		.cfi_remember_state
 254              		.cfi_restore 1
 255 0148 03340101 		ld	s0,16(sp)
 256              		.cfi_restore 8
 257              		.cfi_def_cfa 2, 32
 258 014c 83348100 		ld	s1,8(sp)
 259              		.cfi_restore 9
 260              	.LVL19:
 261 0150 13010102 		addi	sp,sp,32
 262              		.cfi_def_cfa_offset 0
 263 0154 67800000 		jr	ra
 264              	.LVL20:
 265              	.L21:
 266              		.cfi_restore_state
  81:src/sem.cpp   ****     if(handle == nullptr) return -1;
 267              		.loc 1 81 35
 268 0158 1305F0FF 		li	a0,-1
 269 015c 6FF09FFE 		j	.L20
GAS LISTING /tmp/cc1VwR5J.s 			page 8


 270              		.cfi_endproc
 271              	.LFE68:
 273              		.align	2
 274              		.globl	_ZN3sem4waitEv
 276              	_ZN3sem4waitEv:
 277              	.LFB65:
  52:src/sem.cpp   ****     int retVal = 0;
 278              		.loc 1 52 17 is_stmt 1
 279              		.cfi_startproc
 280              	.LVL21:
  53:src/sem.cpp   ****     val--;
 281              		.loc 1 53 5
  54:src/sem.cpp   ****     if(val < 0) retVal = block();
 282              		.loc 1 54 5
 283 0160 83270500 		lw	a5,0(a0)
  54:src/sem.cpp   ****     if(val < 0) retVal = block();
 284              		.loc 1 54 8 is_stmt 0
 285 0164 9B87F7FF 		addiw	a5,a5,-1
 286 0168 2320F500 		sw	a5,0(a0)
  55:src/sem.cpp   ****     return retVal;
 287              		.loc 1 55 5 is_stmt 1
 288 016c 13970702 		slli	a4,a5,32
 289 0170 63460700 		bltz	a4,.L30
  53:src/sem.cpp   ****     val--;
 290              		.loc 1 53 9 is_stmt 0
 291 0174 13050000 		li	a0,0
 292              	.LVL22:
  56:src/sem.cpp   **** }
 293              		.loc 1 56 5 is_stmt 1
  57:src/sem.cpp   **** 
 294              		.loc 1 57 1 is_stmt 0
 295 0178 67800000 		ret
 296              	.LVL23:
 297              	.L30:
  52:src/sem.cpp   ****     int retVal = 0;
 298              		.loc 1 52 17 discriminator 1
 299 017c 130101FF 		addi	sp,sp,-16
 300              		.cfi_def_cfa_offset 16
 301 0180 23341100 		sd	ra,8(sp)
 302 0184 23308100 		sd	s0,0(sp)
 303              		.cfi_offset 1, -8
 304              		.cfi_offset 8, -16
 305 0188 13040101 		addi	s0,sp,16
 306              		.cfi_def_cfa 8, 0
  55:src/sem.cpp   ****     return retVal;
 307              		.loc 1 55 17 is_stmt 1 discriminator 1
  55:src/sem.cpp   ****     return retVal;
 308              		.loc 1 55 31 is_stmt 0 discriminator 1
 309 018c 97000000 		call	_ZN3sem5blockEv
 309      E7800000 
 310              	.LVL24:
  56:src/sem.cpp   **** }
 311              		.loc 1 56 5 is_stmt 1 discriminator 1
  57:src/sem.cpp   **** 
 312              		.loc 1 57 1 is_stmt 0 discriminator 1
 313 0194 83308100 		ld	ra,8(sp)
 314              		.cfi_restore 1
GAS LISTING /tmp/cc1VwR5J.s 			page 9


 315 0198 03340100 		ld	s0,0(sp)
 316              		.cfi_restore 8
 317              		.cfi_def_cfa 2, 16
 318 019c 13010101 		addi	sp,sp,16
 319              		.cfi_def_cfa_offset 0
 320 01a0 67800000 		jr	ra
 321              		.cfi_endproc
 322              	.LFE65:
 324              		.align	2
 325              		.globl	_ZN3sem7unblockEv
 327              	_ZN3sem7unblockEv:
 328              	.LFB69:
  84:src/sem.cpp   **** 
  85:src/sem.cpp   **** int sem::unblock() {
 329              		.loc 1 85 20 is_stmt 1
 330              		.cfi_startproc
 331              	.LVL25:
  86:src/sem.cpp   ****     TCB* unblocked = blockedQueue.removeFirst();
 332              		.loc 1 86 5
  24:src/../h/../h/threadList.hpp ****         }
  25:src/../h/../h/threadList.hpp ****     }
  26:src/../h/../h/threadList.hpp **** 
  27:src/../h/../h/threadList.hpp ****     TCB* removeFirst() {
  28:src/../h/../h/threadList.hpp ****         if (count > 0) {
 333              		.loc 2 28 9
 334              	.LBB41:
 335              	.LBB42:
 336              		.loc 2 28 13 is_stmt 0
 337 01a4 03270533 		lw	a4,816(a0)
 338              		.loc 2 28 9
 339 01a8 635CE00C 		blez	a4,.L40
 340              	.LBE42:
 341              	.LBE41:
  85:src/sem.cpp   ****     TCB* unblocked = blockedQueue.removeFirst();
 342              		.loc 1 85 20
 343 01ac 130101FE 		addi	sp,sp,-32
 344              		.cfi_def_cfa_offset 32
 345 01b0 233C1100 		sd	ra,24(sp)
 346 01b4 23388100 		sd	s0,16(sp)
 347 01b8 23349100 		sd	s1,8(sp)
 348              		.cfi_offset 1, -8
 349              		.cfi_offset 8, -16
 350              		.cfi_offset 9, -24
 351 01bc 13040102 		addi	s0,sp,32
 352              		.cfi_def_cfa 8, 0
 353              	.LBB45:
 354              	.LBB44:
 355              	.LBB43:
  29:src/../h/../h/threadList.hpp ****             TCB* data = list[head];
 356              		.loc 2 29 13 is_stmt 1
 357              		.loc 2 29 30 is_stmt 0
 358 01c0 83278532 		lw	a5,808(a0)
 359              		.loc 2 29 18
 360 01c4 93963700 		slli	a3,a5,3
 361 01c8 B306D500 		add	a3,a0,a3
 362 01cc 83B48600 		ld	s1,8(a3)
 363              	.LVL26:
GAS LISTING /tmp/cc1VwR5J.s 			page 10


  30:src/../h/../h/threadList.hpp ****             head = (head + 1) % MAX_SIZE;
 364              		.loc 2 30 13 is_stmt 1
 365              		.loc 2 30 26 is_stmt 0
 366 01d0 9B871700 		addiw	a5,a5,1
 367              		.loc 2 30 31
 368 01d4 93064006 		li	a3,100
 369 01d8 BBE7D702 		remw	a5,a5,a3
 370              		.loc 2 30 18
 371 01dc 2324F532 		sw	a5,808(a0)
  31:src/../h/../h/threadList.hpp ****             count--;
 372              		.loc 2 31 13 is_stmt 1
 373              		.loc 2 31 18 is_stmt 0
 374 01e0 1B07F7FF 		addiw	a4,a4,-1
 375 01e4 2328E532 		sw	a4,816(a0)
  32:src/../h/../h/threadList.hpp ****             return data;
 376              		.loc 2 32 13 is_stmt 1
 377              	.LVL27:
 378              	.LBE43:
 379              	.LBE44:
 380              	.LBE45:
  87:src/sem.cpp   ****     if(!unblocked) return -1;
 381              		.loc 1 87 5
 382 01e8 63920404 		bnez	s1,.L33
 383              	.LVL28:
 384              		.loc 1 87 20 discriminator 1
 385              		.loc 1 87 28 is_stmt 0 discriminator 1
 386 01ec 1305F0FF 		li	a0,-1
 387              	.LVL29:
 388 01f0 6F004007 		j	.L34
 389              	.LVL30:
 390              	.L44:
 391              	.LBB46:
 392              	.LBB47:
 393              	.LBB48:
  29:src/../h/../h/threadList.hpp ****             head = (head + 1) % MAX_SIZE;
 394              		.loc 2 29 13 is_stmt 1
  29:src/../h/../h/threadList.hpp ****             head = (head + 1) % MAX_SIZE;
 395              		.loc 2 29 30 is_stmt 0
 396 01f4 83278532 		lw	a5,808(a0)
  29:src/../h/../h/threadList.hpp ****             head = (head + 1) % MAX_SIZE;
 397              		.loc 2 29 18
 398 01f8 93963700 		slli	a3,a5,3
 399 01fc B306D500 		add	a3,a0,a3
 400 0200 83B48600 		ld	s1,8(a3)
 401              	.LVL31:
  30:src/../h/../h/threadList.hpp ****             count--;
 402              		.loc 2 30 13 is_stmt 1
  30:src/../h/../h/threadList.hpp ****             count--;
 403              		.loc 2 30 26 is_stmt 0
 404 0204 9B871700 		addiw	a5,a5,1
  30:src/../h/../h/threadList.hpp ****             count--;
 405              		.loc 2 30 31
 406 0208 93064006 		li	a3,100
 407 020c BBE7D702 		remw	a5,a5,a3
  30:src/../h/../h/threadList.hpp ****             count--;
 408              		.loc 2 30 18
 409 0210 2324F532 		sw	a5,808(a0)
GAS LISTING /tmp/cc1VwR5J.s 			page 11


  31:src/../h/../h/threadList.hpp ****             return data;
 410              		.loc 2 31 13 is_stmt 1
  31:src/../h/../h/threadList.hpp ****             return data;
 411              		.loc 2 31 18 is_stmt 0
 412 0214 1B07F7FF 		addiw	a4,a4,-1
 413 0218 2328E532 		sw	a4,816(a0)
 414              		.loc 2 32 13 is_stmt 1
 415              	.LVL32:
 416              	.L36:
 417              	.LBE48:
 418              	.LBE47:
 419              	.LBE46:
  88:src/sem.cpp   ****     while(!unblocked->blocked){ // ako je bio odblokiran u prekidu tajmera
  89:src/sem.cpp   ****         unblocked = blockedQueue.removeFirst();
  90:src/sem.cpp   ****         val++;
 420              		.loc 1 90 9
 421 021c 83270500 		lw	a5,0(a0)
 422              		.loc 1 90 12 is_stmt 0
 423 0220 9B871700 		addiw	a5,a5,1
 424 0224 2320F500 		sw	a5,0(a0)
  91:src/sem.cpp   ****         if(!unblocked) return 0; // znaci da su sve ostale niti zavrsile sa timeWait u prekidu tajm
 425              		.loc 1 91 9 is_stmt 1
 426 0228 63880404 		beqz	s1,.L43
 427              	.L33:
  88:src/sem.cpp   ****     while(!unblocked->blocked){ // ako je bio odblokiran u prekidu tajmera
 428              		.loc 1 88 5
  88:src/sem.cpp   ****     while(!unblocked->blocked){ // ako je bio odblokiran u prekidu tajmera
 429              		.loc 1 88 11
  88:src/sem.cpp   ****     while(!unblocked->blocked){ // ako je bio odblokiran u prekidu tajmera
 430              		.loc 1 88 23 is_stmt 0
 431 022c 83C78405 		lbu	a5,88(s1)
  88:src/sem.cpp   ****     while(!unblocked->blocked){ // ako je bio odblokiran u prekidu tajmera
 432              		.loc 1 88 11
 433 0230 639A0700 		bnez	a5,.L35
  89:src/sem.cpp   ****         val++;
 434              		.loc 1 89 9 is_stmt 1
 435              	.LVL33:
  28:src/../h/../h/threadList.hpp ****             TCB* data = list[head];
 436              		.loc 2 28 9
 437              	.LBB50:
 438              	.LBB49:
  28:src/../h/../h/threadList.hpp ****             TCB* data = list[head];
 439              		.loc 2 28 13 is_stmt 0
 440 0234 03270533 		lw	a4,816(a0)
  28:src/../h/../h/threadList.hpp ****             TCB* data = list[head];
 441              		.loc 2 28 9
 442 0238 E34EE0FA 		bgtz	a4,.L44
  33:src/../h/../h/threadList.hpp ****         } else {
  34:src/../h/../h/threadList.hpp ****             return nullptr;
 443              		.loc 2 34 20
 444 023c 93040000 		li	s1,0
 445              	.LVL34:
 446 0240 6FF0DFFD 		j	.L36
 447              	.LVL35:
 448              	.L35:
 449              	.LBE49:
 450              	.LBE50:
GAS LISTING /tmp/cc1VwR5J.s 			page 12


  92:src/sem.cpp   ****     }
  93:src/sem.cpp   ****     unblocked->blocked = false;
 451              		.loc 1 93 5 is_stmt 1
 452              		.loc 1 93 24 is_stmt 0
 453 0244 238C0404 		sb	zero,88(s1)
  94:src/sem.cpp   ****     removeFromTimeBlockedQueue(unblocked);
 454              		.loc 1 94 5 is_stmt 1
 455              		.loc 1 94 31 is_stmt 0
 456 0248 13850400 		mv	a0,s1
 457              	.LVL36:
 458 024c 97000000 		call	_ZL26removeFromTimeBlockedQueueP3TCB
 458      E7800000 
 459              	.LVL37:
  95:src/sem.cpp   ****     Scheduler::put(unblocked);
 460              		.loc 1 95 5 is_stmt 1
 461              		.loc 1 95 19 is_stmt 0
 462 0254 13850400 		mv	a0,s1
 463 0258 97000000 		call	_ZN9Scheduler3putEP3TCB@plt
 463      E7800000 
 464              	.LVL38:
  96:src/sem.cpp   ****     return 0;
 465              		.loc 1 96 5 is_stmt 1
 466              		.loc 1 96 12 is_stmt 0
 467 0260 13050000 		li	a0,0
 468              	.LVL39:
 469              	.L34:
  97:src/sem.cpp   **** }
 470              		.loc 1 97 1
 471 0264 83308101 		ld	ra,24(sp)
 472              		.cfi_remember_state
 473              		.cfi_restore 1
 474 0268 03340101 		ld	s0,16(sp)
 475              		.cfi_restore 8
 476              		.cfi_def_cfa 2, 32
 477 026c 83348100 		ld	s1,8(sp)
 478              		.cfi_restore 9
 479 0270 13010102 		addi	sp,sp,32
 480              		.cfi_def_cfa_offset 0
 481 0274 67800000 		jr	ra
 482              	.LVL40:
 483              	.L43:
 484              		.cfi_restore_state
  91:src/sem.cpp   ****     }
 485              		.loc 1 91 31
 486 0278 13050000 		li	a0,0
 487              	.LVL41:
 488 027c 6FF09FFE 		j	.L34
 489              	.LVL42:
 490              	.L40:
 491              		.cfi_def_cfa_register 2
 492              		.cfi_restore 1
 493              		.cfi_restore 8
 494              		.cfi_restore 9
  87:src/sem.cpp   ****     while(!unblocked->blocked){ // ako je bio odblokiran u prekidu tajmera
 495              		.loc 1 87 20 is_stmt 1
  87:src/sem.cpp   ****     while(!unblocked->blocked){ // ako je bio odblokiran u prekidu tajmera
 496              		.loc 1 87 28 is_stmt 0
GAS LISTING /tmp/cc1VwR5J.s 			page 13


 497 0280 1305F0FF 		li	a0,-1
 498              	.LVL43:
 499              		.loc 1 97 1
 500 0284 67800000 		ret
 501              		.cfi_endproc
 502              	.LFE69:
 504              		.align	2
 505              		.globl	_ZN3sem6signalEv
 507              	_ZN3sem6signalEv:
 508              	.LFB66:
  60:src/sem.cpp   ****     int retVal = 0;
 509              		.loc 1 60 19 is_stmt 1
 510              		.cfi_startproc
 511              	.LVL44:
  61:src/sem.cpp   ****     val++;
 512              		.loc 1 61 5
  62:src/sem.cpp   ****     if(val <= 0) retVal = unblock();
 513              		.loc 1 62 5
 514 0288 83270500 		lw	a5,0(a0)
  62:src/sem.cpp   ****     if(val <= 0) retVal = unblock();
 515              		.loc 1 62 8 is_stmt 0
 516 028c 9B871700 		addiw	a5,a5,1
 517 0290 1B870700 		sext.w	a4,a5
 518 0294 2320F500 		sw	a5,0(a0)
  63:src/sem.cpp   ****     return retVal;
 519              		.loc 1 63 5 is_stmt 1
 520 0298 6356E000 		blez	a4,.L52
  61:src/sem.cpp   ****     val++;
 521              		.loc 1 61 9 is_stmt 0
 522 029c 13050000 		li	a0,0
 523              	.LVL45:
  64:src/sem.cpp   **** }
 524              		.loc 1 64 5 is_stmt 1
  65:src/sem.cpp   **** 
 525              		.loc 1 65 1 is_stmt 0
 526 02a0 67800000 		ret
 527              	.LVL46:
 528              	.L52:
  60:src/sem.cpp   ****     int retVal = 0;
 529              		.loc 1 60 19 discriminator 1
 530 02a4 130101FF 		addi	sp,sp,-16
 531              		.cfi_def_cfa_offset 16
 532 02a8 23341100 		sd	ra,8(sp)
 533 02ac 23308100 		sd	s0,0(sp)
 534              		.cfi_offset 1, -8
 535              		.cfi_offset 8, -16
 536 02b0 13040101 		addi	s0,sp,16
 537              		.cfi_def_cfa 8, 0
  63:src/sem.cpp   ****     return retVal;
 538              		.loc 1 63 18 is_stmt 1 discriminator 1
  63:src/sem.cpp   ****     return retVal;
 539              		.loc 1 63 34 is_stmt 0 discriminator 1
 540 02b4 97000000 		call	_ZN3sem7unblockEv
 540      E7800000 
 541              	.LVL47:
  64:src/sem.cpp   **** }
 542              		.loc 1 64 5 is_stmt 1 discriminator 1
GAS LISTING /tmp/cc1VwR5J.s 			page 14


  65:src/sem.cpp   **** 
 543              		.loc 1 65 1 is_stmt 0 discriminator 1
 544 02bc 83308100 		ld	ra,8(sp)
 545              		.cfi_restore 1
 546 02c0 03340100 		ld	s0,0(sp)
 547              		.cfi_restore 8
 548              		.cfi_def_cfa 2, 16
 549 02c4 13010101 		addi	sp,sp,16
 550              		.cfi_def_cfa_offset 0
 551 02c8 67800000 		jr	ra
 552              		.cfi_endproc
 553              	.LFE66:
 555              		.align	2
 556              		.globl	_ZN3sem10timedBlockEm
 558              	_ZN3sem10timedBlockEm:
 559              	.LFB70:
  98:src/sem.cpp   **** 
  99:src/sem.cpp   **** int sem::timedBlock(time_t timeout) {
 560              		.loc 1 99 37 is_stmt 1
 561              		.cfi_startproc
 562              	.LVL48:
 563 02cc 130101FD 		addi	sp,sp,-48
 564              		.cfi_def_cfa_offset 48
 565 02d0 23341102 		sd	ra,40(sp)
 566 02d4 23308102 		sd	s0,32(sp)
 567 02d8 233C9100 		sd	s1,24(sp)
 568 02dc 23382101 		sd	s2,16(sp)
 569 02e0 23343101 		sd	s3,8(sp)
 570 02e4 23304101 		sd	s4,0(sp)
 571              		.cfi_offset 1, -8
 572              		.cfi_offset 8, -16
 573              		.cfi_offset 9, -24
 574              		.cfi_offset 18, -32
 575              		.cfi_offset 19, -40
 576              		.cfi_offset 20, -48
 577 02e8 13040103 		addi	s0,sp,48
 578              		.cfi_def_cfa 8, 0
 579 02ec 93040500 		mv	s1,a0
 580 02f0 93890500 		mv	s3,a1
 100:src/sem.cpp   ****     TCB* blocked = TCB::running;
 581              		.loc 1 100 5
 582              		.loc 1 100 10 is_stmt 0
 583 02f4 97070000 		la	a5,_ZN3TCB7runningE
 583      83B70700 
 584 02fc 03BA0700 		ld	s4,0(a5)
 585              	.LVL49:
 101:src/sem.cpp   ****     blockedQueue.addLast(blocked);
 586              		.loc 1 101 5 is_stmt 1
 587              	.LBB51:
 588              	.LBB52:
  20:src/../h/../h/threadList.hpp ****             list[tail] = data;
 589              		.loc 2 20 9
  20:src/../h/../h/threadList.hpp ****             list[tail] = data;
 590              		.loc 2 20 13 is_stmt 0
 591 0300 83270533 		lw	a5,816(a0)
  20:src/../h/../h/threadList.hpp ****             list[tail] = data;
 592              		.loc 2 20 9
GAS LISTING /tmp/cc1VwR5J.s 			page 15


 593 0304 13073006 		li	a4,99
 594 0308 6346F702 		bgt	a5,a4,.L54
  21:src/../h/../h/threadList.hpp ****             tail = (tail + 1) % MAX_SIZE;
 595              		.loc 2 21 13 is_stmt 1
  21:src/../h/../h/threadList.hpp ****             tail = (tail + 1) % MAX_SIZE;
 596              		.loc 2 21 18 is_stmt 0
 597 030c 0327C532 		lw	a4,812(a0)
  21:src/../h/../h/threadList.hpp ****             tail = (tail + 1) % MAX_SIZE;
 598              		.loc 2 21 24
 599 0310 93163700 		slli	a3,a4,3
 600 0314 B306D500 		add	a3,a0,a3
 601 0318 23B44601 		sd	s4,8(a3)
  22:src/../h/../h/threadList.hpp ****             count++;
 602              		.loc 2 22 13 is_stmt 1
  22:src/../h/../h/threadList.hpp ****             count++;
 603              		.loc 2 22 26 is_stmt 0
 604 031c 1B071700 		addiw	a4,a4,1
  22:src/../h/../h/threadList.hpp ****             count++;
 605              		.loc 2 22 31
 606 0320 93064006 		li	a3,100
 607 0324 3B67D702 		remw	a4,a4,a3
  22:src/../h/../h/threadList.hpp ****             count++;
 608              		.loc 2 22 18
 609 0328 2326E532 		sw	a4,812(a0)
  23:src/../h/../h/threadList.hpp ****         }
 610              		.loc 2 23 13 is_stmt 1
  23:src/../h/../h/threadList.hpp ****         }
 611              		.loc 2 23 18 is_stmt 0
 612 032c 9B871700 		addiw	a5,a5,1
 613 0330 2328F532 		sw	a5,816(a0)
 614              	.L54:
 615              	.LVL50:
 616              	.LBE52:
 617              	.LBE51:
 102:src/sem.cpp   ****     blocked->blocked = true;
 618              		.loc 1 102 5 is_stmt 1
 619              		.loc 1 102 22 is_stmt 0
 620 0334 93071000 		li	a5,1
 621 0338 230CFA04 		sb	a5,88(s4)
 103:src/sem.cpp   ****     Elem* blockedElem = new Elem(blocked, timeout);
 622              		.loc 1 103 5 is_stmt 1
 623              		.loc 1 103 50 is_stmt 0
 624 033c 13058001 		li	a0,24
 625              	.LVL51:
 626 0340 97000000 		call	_Znwm@plt
 626      E7800000 
 627              	.LVL52:
 628 0348 13090500 		mv	s2,a0
 629 034c 9B890900 		sext.w	s3,s3
 630              	.LVL53:
 631              	.LBB53:
 632              	.LBB54:
 633              		.file 3 "src/../h/sem.hpp"
   1:src/../h/sem.hpp **** #ifndef PROJECT_BASE_SEM_HPP
   2:src/../h/sem.hpp **** #define PROJECT_BASE_SEM_HPP
   3:src/../h/sem.hpp **** 
   4:src/../h/sem.hpp **** #include "../h/tcb.hpp"
GAS LISTING /tmp/cc1VwR5J.s 			page 16


   5:src/../h/sem.hpp **** #include "../h/list.hpp"
   6:src/../h/sem.hpp **** #include "../h/threadList.hpp"
   7:src/../h/sem.hpp **** 
   8:src/../h/sem.hpp **** struct Elem {
   9:src/../h/sem.hpp ****     TCB* tcb;
  10:src/../h/sem.hpp ****     uint64 timeLeft;
  11:src/../h/sem.hpp ****     Elem* next;
  12:src/../h/sem.hpp **** 
  13:src/../h/sem.hpp ****     Elem(TCB* tcb, int time, Elem* nxt = nullptr)
  14:src/../h/sem.hpp ****             : tcb(tcb), timeLeft(time), next(nxt) {}
 634              		.loc 3 14 49
 635 0350 23304501 		sd	s4,0(a0)
 636 0354 23343501 		sd	s3,8(a0)
 637 0358 23380500 		sd	zero,16(a0)
 638              	.LVL54:
 639              	.LBE54:
 640              	.LBE53:
 104:src/sem.cpp   **** 
 105:src/sem.cpp   ****     addToTimeBlockedQueue(blockedElem);
 641              		.loc 1 105 5 is_stmt 1
 642              		.loc 1 105 26 is_stmt 0
 643 035c 97000000 		call	_ZL21addToTimeBlockedQueueP4Elem
 643      E7800000 
 644              	.LVL55:
 106:src/sem.cpp   **** 
 107:src/sem.cpp   ****     TCB::dispatch();
 645              		.loc 1 107 5 is_stmt 1
 646              		.loc 1 107 18 is_stmt 0
 647 0364 97000000 		call	_ZN3TCB8dispatchEv@plt
 647      E7800000 
 648              	.LVL56:
 108:src/sem.cpp   ****     if(handle == nullptr) return -1; // semdead
 649              		.loc 1 108 5 is_stmt 1
 650              		.loc 1 108 8 is_stmt 0
 651 036c 83B78433 		ld	a5,824(s1)
 652              		.loc 1 108 5
 653 0370 63880702 		beqz	a5,.L56
 109:src/sem.cpp   ****     else if(blockedElem->timeLeft == 0) return -2; // timeout
 654              		.loc 1 109 10 is_stmt 1
 655              		.loc 1 109 26 is_stmt 0
 656 0374 83378900 		ld	a5,8(s2)
 657              		.loc 1 109 10
 658 0378 63880702 		beqz	a5,.L57
 110:src/sem.cpp   ****     return 0;
 659              		.loc 1 110 12
 660 037c 13050000 		li	a0,0
 661              	.L55:
 111:src/sem.cpp   **** }
 662              		.loc 1 111 1
 663 0380 83308102 		ld	ra,40(sp)
 664              		.cfi_remember_state
 665              		.cfi_restore 1
 666 0384 03340102 		ld	s0,32(sp)
 667              		.cfi_restore 8
 668              		.cfi_def_cfa 2, 48
 669 0388 83348101 		ld	s1,24(sp)
 670              		.cfi_restore 9
GAS LISTING /tmp/cc1VwR5J.s 			page 17


 671              	.LVL57:
 672 038c 03390101 		ld	s2,16(sp)
 673              		.cfi_restore 18
 674              	.LVL58:
 675 0390 83398100 		ld	s3,8(sp)
 676              		.cfi_restore 19
 677 0394 033A0100 		ld	s4,0(sp)
 678              		.cfi_restore 20
 679              	.LVL59:
 680 0398 13010103 		addi	sp,sp,48
 681              		.cfi_def_cfa_offset 0
 682 039c 67800000 		jr	ra
 683              	.LVL60:
 684              	.L56:
 685              		.cfi_restore_state
 108:src/sem.cpp   ****     else if(blockedElem->timeLeft == 0) return -2; // timeout
 686              		.loc 1 108 35
 687 03a0 1305F0FF 		li	a0,-1
 688 03a4 6FF0DFFD 		j	.L55
 689              	.L57:
 109:src/sem.cpp   ****     return 0;
 690              		.loc 1 109 49
 691 03a8 1305E0FF 		li	a0,-2
 692 03ac 6FF05FFD 		j	.L55
 693              		.cfi_endproc
 694              	.LFE70:
 696              		.align	2
 697              		.globl	_ZN3sem9timedWaitEm
 699              	_ZN3sem9timedWaitEm:
 700              	.LFB67:
  68:src/sem.cpp   ****     int retVal = 0;
 701              		.loc 1 68 36 is_stmt 1
 702              		.cfi_startproc
 703              	.LVL61:
  69:src/sem.cpp   ****     val--;
 704              		.loc 1 69 5
  70:src/sem.cpp   ****     if(val < 0) retVal = timedBlock(timeout);
 705              		.loc 1 70 5
 706 03b0 83270500 		lw	a5,0(a0)
  70:src/sem.cpp   ****     if(val < 0) retVal = timedBlock(timeout);
 707              		.loc 1 70 8 is_stmt 0
 708 03b4 9B87F7FF 		addiw	a5,a5,-1
 709 03b8 2320F500 		sw	a5,0(a0)
  71:src/sem.cpp   ****     return retVal;
 710              		.loc 1 71 5 is_stmt 1
 711 03bc 13970702 		slli	a4,a5,32
 712 03c0 63460700 		bltz	a4,.L66
  69:src/sem.cpp   ****     val--;
 713              		.loc 1 69 9 is_stmt 0
 714 03c4 13050000 		li	a0,0
 715              	.LVL62:
  72:src/sem.cpp   **** }
 716              		.loc 1 72 5 is_stmt 1
  73:src/sem.cpp   **** 
 717              		.loc 1 73 1 is_stmt 0
 718 03c8 67800000 		ret
 719              	.LVL63:
GAS LISTING /tmp/cc1VwR5J.s 			page 18


 720              	.L66:
  68:src/sem.cpp   ****     int retVal = 0;
 721              		.loc 1 68 36 discriminator 1
 722 03cc 130101FF 		addi	sp,sp,-16
 723              		.cfi_def_cfa_offset 16
 724 03d0 23341100 		sd	ra,8(sp)
 725 03d4 23308100 		sd	s0,0(sp)
 726              		.cfi_offset 1, -8
 727              		.cfi_offset 8, -16
 728 03d8 13040101 		addi	s0,sp,16
 729              		.cfi_def_cfa 8, 0
  71:src/sem.cpp   ****     return retVal;
 730              		.loc 1 71 17 is_stmt 1 discriminator 1
  71:src/sem.cpp   ****     return retVal;
 731              		.loc 1 71 36 is_stmt 0 discriminator 1
 732 03dc 97000000 		call	_ZN3sem10timedBlockEm
 732      E7800000 
 733              	.LVL64:
  72:src/sem.cpp   **** }
 734              		.loc 1 72 5 is_stmt 1 discriminator 1
  73:src/sem.cpp   **** 
 735              		.loc 1 73 1 is_stmt 0 discriminator 1
 736 03e4 83308100 		ld	ra,8(sp)
 737              		.cfi_restore 1
 738 03e8 03340100 		ld	s0,0(sp)
 739              		.cfi_restore 8
 740              		.cfi_def_cfa 2, 16
 741 03ec 13010101 		addi	sp,sp,16
 742              		.cfi_def_cfa_offset 0
 743 03f0 67800000 		jr	ra
 744              		.cfi_endproc
 745              	.LFE67:
 747              		.align	2
 748              		.globl	_ZN3sem7tryWaitEv
 750              	_ZN3sem7tryWaitEv:
 751              	.LFB71:
 112:src/sem.cpp   **** 
 113:src/sem.cpp   **** int sem::tryWait(){
 752              		.loc 1 113 19 is_stmt 1
 753              		.cfi_startproc
 754              	.LVL65:
 755 03f4 130101FF 		addi	sp,sp,-16
 756              		.cfi_def_cfa_offset 16
 757 03f8 23348100 		sd	s0,8(sp)
 758              		.cfi_offset 8, -8
 759 03fc 13040101 		addi	s0,sp,16
 760              		.cfi_def_cfa 8, 0
 114:src/sem.cpp   ****     if(val > 0){
 761              		.loc 1 114 5
 762              		.loc 1 114 8 is_stmt 0
 763 0400 83270500 		lw	a5,0(a0)
 764              		.loc 1 114 5
 765 0404 635EF000 		blez	a5,.L69
 115:src/sem.cpp   ****         val--;
 766              		.loc 1 115 9 is_stmt 1
 767              		.loc 1 115 12 is_stmt 0
 768 0408 9B87F7FF 		addiw	a5,a5,-1
GAS LISTING /tmp/cc1VwR5J.s 			page 19


 769 040c 2320F500 		sw	a5,0(a0)
 116:src/sem.cpp   ****         return 0;
 770              		.loc 1 116 9 is_stmt 1
 771              		.loc 1 116 16 is_stmt 0
 772 0410 13050000 		li	a0,0
 773              	.LVL66:
 774              	.L68:
 117:src/sem.cpp   ****     }else{
 118:src/sem.cpp   ****         return 1;
 119:src/sem.cpp   ****     }
 120:src/sem.cpp   **** }
 775              		.loc 1 120 1
 776 0414 03348100 		ld	s0,8(sp)
 777              		.cfi_remember_state
 778              		.cfi_restore 8
 779              		.cfi_def_cfa 2, 16
 780 0418 13010101 		addi	sp,sp,16
 781              		.cfi_def_cfa_offset 0
 782 041c 67800000 		jr	ra
 783              	.LVL67:
 784              	.L69:
 785              		.cfi_restore_state
 118:src/sem.cpp   ****     }
 786              		.loc 1 118 16
 787 0420 13051000 		li	a0,1
 788              	.LVL68:
 789 0424 6FF01FFF 		j	.L68
 790              		.cfi_endproc
 791              	.LFE71:
 793              		.align	2
 794              		.globl	_ZN3semnwEm
 796              	_ZN3semnwEm:
 797              	.LFB72:
 121:src/sem.cpp   **** 
 122:src/sem.cpp   **** 
 123:src/sem.cpp   **** void* sem::operator new(size_t size) {
 798              		.loc 1 123 38 is_stmt 1
 799              		.cfi_startproc
 800              	.LVL69:
 801 0428 130101FF 		addi	sp,sp,-16
 802              		.cfi_def_cfa_offset 16
 803 042c 23341100 		sd	ra,8(sp)
 804 0430 23308100 		sd	s0,0(sp)
 805              		.cfi_offset 1, -8
 806              		.cfi_offset 8, -16
 807 0434 13040101 		addi	s0,sp,16
 808              		.cfi_def_cfa 8, 0
 124:src/sem.cpp   ****     return MemoryAllocator::mem_alloc((((size) + MEM_BLOCK_SIZE - 1) & ~(MEM_BLOCK_SIZE - 1)) / MEM
 809              		.loc 1 124 5
 810              		.loc 1 124 65 is_stmt 0
 811 0438 1305F50F 		addi	a0,a0,255
 812              	.LVL70:
 813              		.loc 1 124 38
 814 043c 13558500 		srli	a0,a0,8
 815              	.LVL71:
 816 0440 97000000 		call	_ZN15MemoryAllocator9mem_allocEm@plt
 816      E7800000 
GAS LISTING /tmp/cc1VwR5J.s 			page 20


 817              	.LVL72:
 125:src/sem.cpp   **** }
 818              		.loc 1 125 1
 819 0448 83308100 		ld	ra,8(sp)
 820              		.cfi_restore 1
 821 044c 03340100 		ld	s0,0(sp)
 822              		.cfi_restore 8
 823              		.cfi_def_cfa 2, 16
 824 0450 13010101 		addi	sp,sp,16
 825              		.cfi_def_cfa_offset 0
 826 0454 67800000 		jr	ra
 827              		.cfi_endproc
 828              	.LFE72:
 830              		.align	2
 831              		.globl	_ZN3sem8sem_openEPPS_i
 833              	_ZN3sem8sem_openEPPS_i:
 834              	.LFB64:
  46:src/sem.cpp   ****     *handle = new sem(init);
 835              		.loc 1 46 43 is_stmt 1
 836              		.cfi_startproc
 837              	.LVL73:
 838 0458 130101FE 		addi	sp,sp,-32
 839              		.cfi_def_cfa_offset 32
 840 045c 233C1100 		sd	ra,24(sp)
 841 0460 23388100 		sd	s0,16(sp)
 842 0464 23349100 		sd	s1,8(sp)
 843 0468 23302101 		sd	s2,0(sp)
 844              		.cfi_offset 1, -8
 845              		.cfi_offset 8, -16
 846              		.cfi_offset 9, -24
 847              		.cfi_offset 18, -32
 848 046c 13040102 		addi	s0,sp,32
 849              		.cfi_def_cfa 8, 0
 850 0470 13090500 		mv	s2,a0
 851 0474 93840500 		mv	s1,a1
  47:src/sem.cpp   ****     if(*handle == nullptr) return -1;
 852              		.loc 1 47 5
  47:src/sem.cpp   ****     if(*handle == nullptr) return -1;
 853              		.loc 1 47 27 is_stmt 0
 854 0478 13050034 		li	a0,832
 855              	.LVL74:
 856 047c 97000000 		call	_ZN3semnwEm
 856      E7800000 
 857              	.LVL75:
 858              	.LBB55:
 859              	.LBB56:
  15:src/../h/sem.hpp **** };
  16:src/../h/sem.hpp **** 
  17:src/../h/sem.hpp **** class sem{
  18:src/../h/sem.hpp **** public:
  19:src/../h/sem.hpp ****     sem(unsigned short init = 1, sem** handle = nullptr) : val(init), handle(handle){}
 860              		.loc 3 19 84
 861 0484 93940403 		slli	s1,s1,48
 862              	.LVL76:
 863 0488 93D40403 		srli	s1,s1,48
 864 048c 23209500 		sw	s1,0(a0)
 865              	.LVL77:
GAS LISTING /tmp/cc1VwR5J.s 			page 21


 866              	.LBB57:
 867              	.LBB58:
  17:src/../h/../h/threadList.hpp **** 
 868              		.loc 2 17 45
 869 0490 23240532 		sw	zero,808(a0)
 870 0494 23260532 		sw	zero,812(a0)
 871 0498 23280532 		sw	zero,816(a0)
 872              	.LVL78:
 873              	.LBE58:
 874              	.LBE57:
 875              		.loc 3 19 84
 876 049c 233C0532 		sd	zero,824(a0)
 877              	.LVL79:
 878              	.LBE56:
 879              	.LBE55:
  47:src/sem.cpp   ****     if(*handle == nullptr) return -1;
 880              		.loc 1 47 13
 881 04a0 2330A900 		sd	a0,0(s2)
  48:src/sem.cpp   ****     return 0;
 882              		.loc 1 48 5 is_stmt 1
 883 04a4 63000502 		beqz	a0,.L75
  49:src/sem.cpp   **** }
 884              		.loc 1 49 12 is_stmt 0
 885 04a8 13050000 		li	a0,0
 886              	.L74:
  50:src/sem.cpp   **** 
 887              		.loc 1 50 1
 888 04ac 83308101 		ld	ra,24(sp)
 889              		.cfi_remember_state
 890              		.cfi_restore 1
 891 04b0 03340101 		ld	s0,16(sp)
 892              		.cfi_restore 8
 893              		.cfi_def_cfa 2, 32
 894 04b4 83348100 		ld	s1,8(sp)
 895              		.cfi_restore 9
 896 04b8 03390100 		ld	s2,0(sp)
 897              		.cfi_restore 18
 898              	.LVL80:
 899 04bc 13010102 		addi	sp,sp,32
 900              		.cfi_def_cfa_offset 0
 901 04c0 67800000 		jr	ra
 902              	.LVL81:
 903              	.L75:
 904              		.cfi_restore_state
  48:src/sem.cpp   ****     return 0;
 905              		.loc 1 48 36
 906 04c4 1305F0FF 		li	a0,-1
 907 04c8 6FF05FFE 		j	.L74
 908              		.cfi_endproc
 909              	.LFE64:
 911              		.align	2
 912              		.globl	_ZN3semdlEPv
 914              	_ZN3semdlEPv:
 915              	.LFB73:
 126:src/sem.cpp   **** 
 127:src/sem.cpp   **** void sem::operator delete(void *ptr) {
 916              		.loc 1 127 38 is_stmt 1
GAS LISTING /tmp/cc1VwR5J.s 			page 22


 917              		.cfi_startproc
 918              	.LVL82:
 919 04cc 130101FF 		addi	sp,sp,-16
 920              		.cfi_def_cfa_offset 16
 921 04d0 23341100 		sd	ra,8(sp)
 922 04d4 23308100 		sd	s0,0(sp)
 923              		.cfi_offset 1, -8
 924              		.cfi_offset 8, -16
 925 04d8 13040101 		addi	s0,sp,16
 926              		.cfi_def_cfa 8, 0
 128:src/sem.cpp   ****     MemoryAllocator::mem_free(ptr);
 927              		.loc 1 128 5
 928              		.loc 1 128 30 is_stmt 0
 929 04dc 97000000 		call	_ZN15MemoryAllocator8mem_freeEPv@plt
 929      E7800000 
 930              	.LVL83:
 129:src/sem.cpp   **** }
 931              		.loc 1 129 1
 932 04e4 83308100 		ld	ra,8(sp)
 933              		.cfi_restore 1
 934 04e8 03340100 		ld	s0,0(sp)
 935              		.cfi_restore 8
 936              		.cfi_def_cfa 2, 16
 937 04ec 13010101 		addi	sp,sp,16
 938              		.cfi_def_cfa_offset 0
 939 04f0 67800000 		jr	ra
 940              		.cfi_endproc
 941              	.LFE73:
 943              		.align	2
 944              		.globl	_ZN3semD2Ev
 946              	_ZN3semD2Ev:
 947              	.LFB75:
 130:src/sem.cpp   **** 
 131:src/sem.cpp   **** sem::~sem() {
 948              		.loc 1 131 1 is_stmt 1
 949              		.cfi_startproc
 950              		.cfi_personality 0x9b,DW.ref.__gxx_personality_v0
 951              		.cfi_lsda 0x1b,.LLSDA75
 952              	.LVL84:
 953 04f4 130101FE 		addi	sp,sp,-32
 954              		.cfi_def_cfa_offset 32
 955 04f8 233C1100 		sd	ra,24(sp)
 956 04fc 23388100 		sd	s0,16(sp)
 957 0500 23349100 		sd	s1,8(sp)
 958              		.cfi_offset 1, -8
 959              		.cfi_offset 8, -16
 960              		.cfi_offset 9, -24
 961 0504 13040102 		addi	s0,sp,32
 962              		.cfi_def_cfa 8, 0
 963 0508 93040500 		mv	s1,a0
 964              	.LVL85:
 965              	.L81:
 966              	.LBB59:
 132:src/sem.cpp   ****     while(!blockedQueue.isEmpty()){
 967              		.loc 1 132 5
 968              		.loc 1 132 11
 969              	.LBB60:
GAS LISTING /tmp/cc1VwR5J.s 			page 23


 970              	.LBB61:
  35:src/../h/../h/threadList.hpp ****         }
  36:src/../h/../h/threadList.hpp ****     }
  37:src/../h/../h/threadList.hpp **** 
  38:src/../h/../h/threadList.hpp ****     TCB* peekFirst() const {
  39:src/../h/../h/threadList.hpp ****         if (count > 0) {
  40:src/../h/../h/threadList.hpp ****             return list[head];
  41:src/../h/../h/threadList.hpp ****         } else {
  42:src/../h/../h/threadList.hpp ****             return nullptr;
  43:src/../h/../h/threadList.hpp ****         }
  44:src/../h/../h/threadList.hpp ****     }
  45:src/../h/../h/threadList.hpp **** 
  46:src/../h/../h/threadList.hpp ****     TCB* removeLast() {
  47:src/../h/../h/threadList.hpp ****         if (count > 0) {
  48:src/../h/../h/threadList.hpp ****             tail = (tail - 1 + MAX_SIZE) % MAX_SIZE;
  49:src/../h/../h/threadList.hpp ****             TCB* data = list[tail];
  50:src/../h/../h/threadList.hpp ****             count--;
  51:src/../h/../h/threadList.hpp ****             return data;
  52:src/../h/../h/threadList.hpp ****         } else {
  53:src/../h/../h/threadList.hpp ****             return nullptr;
  54:src/../h/../h/threadList.hpp ****         }
  55:src/../h/../h/threadList.hpp ****     }
  56:src/../h/../h/threadList.hpp **** 
  57:src/../h/../h/threadList.hpp ****     TCB* peekLast() const {
  58:src/../h/../h/threadList.hpp ****         if (count > 0) {
  59:src/../h/../h/threadList.hpp ****             int lastIndex = (tail - 1 + MAX_SIZE) % MAX_SIZE;
  60:src/../h/../h/threadList.hpp ****             return list[lastIndex];
  61:src/../h/../h/threadList.hpp ****         } else {
  62:src/../h/../h/threadList.hpp ****             return nullptr;
  63:src/../h/../h/threadList.hpp ****         }
  64:src/../h/../h/threadList.hpp ****     }
  65:src/../h/../h/threadList.hpp **** 
  66:src/../h/../h/threadList.hpp ****     bool isEmpty() const {
  67:src/../h/../h/threadList.hpp ****         return count == 0;
 971              		.loc 2 67 9
 972              		.loc 2 67 16 is_stmt 0
 973 050c 83A70433 		lw	a5,816(s1)
 974              	.LVL86:
 975              	.LBE61:
 976              	.LBE60:
 977              		.loc 1 132 11
 978 0510 638C0700 		beqz	a5,.L79
 133:src/sem.cpp   ****         (*handle)->unblock();
 979              		.loc 1 133 9 is_stmt 1
 980              		.loc 1 133 11 is_stmt 0
 981 0514 83B78433 		ld	a5,824(s1)
 982              		.loc 1 133 27
 983 0518 03B50700 		ld	a0,0(a5)
 984 051c 97000000 		call	_ZN3sem7unblockEv
 984      E7800000 
 985              	.LVL87:
 132:src/sem.cpp   ****     while(!blockedQueue.isEmpty()){
 986              		.loc 1 132 5
 987 0524 6FF09FFE 		j	.L81
 988              	.L79:
 989              	.LBE59:
 134:src/sem.cpp   ****     }
GAS LISTING /tmp/cc1VwR5J.s 			page 24


 135:src/sem.cpp   **** }
 990              		.loc 1 135 1
 991 0528 83308101 		ld	ra,24(sp)
 992              		.cfi_restore 1
 993 052c 03340101 		ld	s0,16(sp)
 994              		.cfi_restore 8
 995              		.cfi_def_cfa 2, 32
 996 0530 83348100 		ld	s1,8(sp)
 997              		.cfi_restore 9
 998              	.LVL88:
 999 0534 13010102 		addi	sp,sp,32
 1000              		.cfi_def_cfa_offset 0
 1001 0538 67800000 		jr	ra
 1002              		.cfi_endproc
 1003              	.LFE75:
 1004              		.globl	__gxx_personality_v0
 1005              		.section	.gcc_except_table,"a",@progbits
 1006              	.LLSDA75:
 1007 0000 FF       		.byte	0xff
 1008 0001 FF       		.byte	0xff
 1009 0002 03       		.byte	0x3
 1010 0003 00       		.byte	0
 1011              		.text
 1013              		.globl	_ZN3semD1Ev
 1014              		.set	_ZN3semD1Ev,_ZN3semD2Ev
 1015              		.globl	_ZN3sem16timeBlockedQueueE
 1016              		.bss
 1017              		.align	3
 1018              		.set	.LANCHOR0,. + 0
 1021              	_ZN3sem16timeBlockedQueueE:
 1022 0000 00000000 		.zero	8
 1022      00000000 
 1023              		.text
 1024              	.Letext0:
 1025              		.file 4 "src/../h/../h/../lib/hw.h"
 1026              		.file 5 "src/../h/../h/tcb.hpp"
 1027              		.file 6 "src/../h/../h/../h/memoryAllocator.hpp"
 1028              		.file 7 "src/../h/../h/scheduler.hpp"
 1029              		.file 8 "src/../h/../h/sleepingThreadList.hpp"
 5582              		.align	3
 5585              	DW.ref.__gxx_personality_v0:
 5586 0000 00000000 		.dword	__gxx_personality_v0
 5586      00000000 
 5587              		.ident	"GCC: (Ubuntu 9.4.0-1ubuntu1~20.04) 9.4.0"
 5588              		.section	.note.GNU-stack,"",@progbits
GAS LISTING /tmp/cc1VwR5J.s 			page 25

