GAS LISTING /tmp/ccIG0UGd.s 			page 1


   1              		.file	"syscall_cpp.cpp"
   2              		.option pic
   3              		.option norelax
   4              		.text
   5              	.Ltext0:
   6              		.section	.text._ZN6Thread3runEv,"axG",@progbits,_ZN6Thread3runEv,comdat
   7              		.align	2
   8              		.weak	_ZN6Thread3runEv
  10              	_ZN6Thread3runEv:
  11              	.LFB63:
  12              		.file 1 "src/../h/syscall_cpp.hpp"
   1:src/../h/syscall_cpp.hpp **** #ifndef syscall_cpp
   2:src/../h/syscall_cpp.hpp **** #define syscall_cpp
   3:src/../h/syscall_cpp.hpp **** 
   4:src/../h/syscall_cpp.hpp **** #include "../lib/hw.h"
   5:src/../h/syscall_cpp.hpp **** #include "syscall_c.hpp"
   6:src/../h/syscall_cpp.hpp **** #include "../h/tcb.hpp"
   7:src/../h/syscall_cpp.hpp **** 
   8:src/../h/syscall_cpp.hpp **** void *operator new(size_t size);
   9:src/../h/syscall_cpp.hpp **** void *operator new[](size_t size);
  10:src/../h/syscall_cpp.hpp **** void operator delete(void *ptr) noexcept;
  11:src/../h/syscall_cpp.hpp **** void operator delete[](void *ptr) noexcept;
  12:src/../h/syscall_cpp.hpp **** 
  13:src/../h/syscall_cpp.hpp **** class Thread {
  14:src/../h/syscall_cpp.hpp **** public:
  15:src/../h/syscall_cpp.hpp ****     static void runWrapper(void* thread) {
  16:src/../h/syscall_cpp.hpp ****         if(thread) {
  17:src/../h/syscall_cpp.hpp ****             ((Thread*)thread)->run();
  18:src/../h/syscall_cpp.hpp ****         }
  19:src/../h/syscall_cpp.hpp ****     }
  20:src/../h/syscall_cpp.hpp **** 
  21:src/../h/syscall_cpp.hpp **** 
  22:src/../h/syscall_cpp.hpp ****     Thread (void (*body)(void*), void* arg);
  23:src/../h/syscall_cpp.hpp ****     Thread ();
  24:src/../h/syscall_cpp.hpp ****     virtual ~Thread ();
  25:src/../h/syscall_cpp.hpp ****     int start ();
  26:src/../h/syscall_cpp.hpp ****     static void dispatch ();
  27:src/../h/syscall_cpp.hpp ****     static int sleep (time_t);
  28:src/../h/syscall_cpp.hpp **** protected:
  29:src/../h/syscall_cpp.hpp **** 
  30:src/../h/syscall_cpp.hpp ****     virtual void run (){};
  13              		.loc 1 30 18
  14              		.cfi_startproc
  15              	.LVL0:
  16 0000 130101FF 		addi	sp,sp,-16
  17              		.cfi_def_cfa_offset 16
  18 0004 23348100 		sd	s0,8(sp)
  19              		.cfi_offset 8, -8
  20 0008 13040101 		addi	s0,sp,16
  21              		.cfi_def_cfa 8, 0
  22              		.loc 1 30 25 is_stmt 0
  23 000c 03348100 		ld	s0,8(sp)
  24              		.cfi_restore 8
  25              		.cfi_def_cfa 2, 16
  26 0010 13010101 		addi	sp,sp,16
  27              		.cfi_def_cfa_offset 0
  28 0014 67800000 		jr	ra
GAS LISTING /tmp/ccIG0UGd.s 			page 2


  29              		.cfi_endproc
  30              	.LFE63:
  32              		.text
  33              		.align	2
  34              		.globl	_ZN6ThreadD2Ev
  36              	_ZN6ThreadD2Ev:
  37              	.LFB81:
  13:src/../h/syscall_cpp.hpp **** public:
  38              		.loc 1 13 7 is_stmt 1
  39              		.cfi_startproc
  40              	.LVL1:
  41 0000 130101FF 		addi	sp,sp,-16
  42              		.cfi_def_cfa_offset 16
  43 0004 23348100 		sd	s0,8(sp)
  44              		.cfi_offset 8, -8
  45 0008 13040101 		addi	s0,sp,16
  46              		.cfi_def_cfa 8, 0
  13:src/../h/syscall_cpp.hpp **** public:
  47              		.loc 1 13 7 is_stmt 0
  48 000c 03348100 		ld	s0,8(sp)
  49              		.cfi_restore 8
  50              		.cfi_def_cfa 2, 16
  51 0010 13010101 		addi	sp,sp,16
  52              		.cfi_def_cfa_offset 0
  53 0014 67800000 		jr	ra
  54              		.cfi_endproc
  55              	.LFE81:
  57              		.globl	_ZN6ThreadD1Ev
  58              		.set	_ZN6ThreadD1Ev,_ZN6ThreadD2Ev
  59              		.align	2
  60              		.globl	_ZN6Thread7wrapperEPv
  62              	_ZN6Thread7wrapperEPv:
  63              	.LFB87:
  64              		.file 2 "src/syscall_cpp.cpp"
   1:src/syscall_cpp.cpp **** #include "../h/syscall_cpp.hpp"
   2:src/syscall_cpp.cpp **** #include "../h/print.hpp"
   3:src/syscall_cpp.cpp **** 
   4:src/syscall_cpp.cpp **** void *operator new(size_t size) {
   5:src/syscall_cpp.cpp ****     return mem_alloc(CONVERT_SIZE_TO_BLOCKS(size));
   6:src/syscall_cpp.cpp **** }
   7:src/syscall_cpp.cpp **** 
   8:src/syscall_cpp.cpp **** void *operator new[](size_t size) {
   9:src/syscall_cpp.cpp ****     return mem_alloc(CONVERT_SIZE_TO_BLOCKS(size));
  10:src/syscall_cpp.cpp **** }
  11:src/syscall_cpp.cpp **** 
  12:src/syscall_cpp.cpp **** void operator delete(void *ptr) noexcept {
  13:src/syscall_cpp.cpp **** mem_free(ptr);
  14:src/syscall_cpp.cpp **** }
  15:src/syscall_cpp.cpp **** 
  16:src/syscall_cpp.cpp **** void operator delete[](void *ptr) noexcept {
  17:src/syscall_cpp.cpp **** mem_free(ptr);
  18:src/syscall_cpp.cpp **** }
  19:src/syscall_cpp.cpp **** 
  20:src/syscall_cpp.cpp **** Thread::Thread(void (*body)(void *), void *arg) {
  21:src/syscall_cpp.cpp ****     this->body = body;
  22:src/syscall_cpp.cpp ****     this->arg = arg;
  23:src/syscall_cpp.cpp ****     this->myHandle = nullptr;
GAS LISTING /tmp/ccIG0UGd.s 			page 3


  24:src/syscall_cpp.cpp **** }
  25:src/syscall_cpp.cpp **** 
  26:src/syscall_cpp.cpp **** int Thread::start() {
  27:src/syscall_cpp.cpp ****     return thread_create(&this->myHandle, this->body, this->arg);
  28:src/syscall_cpp.cpp **** }
  29:src/syscall_cpp.cpp **** 
  30:src/syscall_cpp.cpp **** void Thread::dispatch() {
  31:src/syscall_cpp.cpp ****     thread_dispatch();
  32:src/syscall_cpp.cpp **** }
  33:src/syscall_cpp.cpp **** 
  34:src/syscall_cpp.cpp **** int Thread::sleep(time_t t) {
  35:src/syscall_cpp.cpp ****     return time_sleep(t);
  36:src/syscall_cpp.cpp **** }
  37:src/syscall_cpp.cpp **** 
  38:src/syscall_cpp.cpp **** Thread::~Thread() = default;
  39:src/syscall_cpp.cpp **** 
  40:src/syscall_cpp.cpp **** Thread::Thread() {
  41:src/syscall_cpp.cpp ****     this->body = wrapper;
  42:src/syscall_cpp.cpp ****     this->arg = this;
  43:src/syscall_cpp.cpp ****     this->myHandle = nullptr;
  44:src/syscall_cpp.cpp **** }
  45:src/syscall_cpp.cpp **** 
  46:src/syscall_cpp.cpp **** void Thread::wrapper(void* ptr) {
  65              		.loc 2 46 33 is_stmt 1
  66              		.cfi_startproc
  67              	.LVL2:
  47:src/syscall_cpp.cpp ****     if(ptr) ((Thread*)ptr)->run();
  68              		.loc 2 47 5
  69 0018 63080502 		beqz	a0,.L8
  46:src/syscall_cpp.cpp ****     if(ptr) ((Thread*)ptr)->run();
  70              		.loc 2 46 33 is_stmt 0 discriminator 1
  71 001c 130101FF 		addi	sp,sp,-16
  72              		.cfi_def_cfa_offset 16
  73 0020 23341100 		sd	ra,8(sp)
  74 0024 23308100 		sd	s0,0(sp)
  75              		.cfi_offset 1, -8
  76              		.cfi_offset 8, -16
  77 0028 13040101 		addi	s0,sp,16
  78              		.cfi_def_cfa 8, 0
  79              		.loc 2 47 13 is_stmt 1 discriminator 1
  80              		.loc 2 47 33 is_stmt 0 discriminator 1
  81 002c 83370500 		ld	a5,0(a0)
  82 0030 83B70701 		ld	a5,16(a5)
  83              		.loc 2 47 32 discriminator 1
  84 0034 E7800700 		jalr	a5
  85              	.LVL3:
  48:src/syscall_cpp.cpp **** }
  86              		.loc 2 48 1 discriminator 1
  87 0038 83308100 		ld	ra,8(sp)
  88              		.cfi_restore 1
  89 003c 03340100 		ld	s0,0(sp)
  90              		.cfi_restore 8
  91              		.cfi_def_cfa 2, 16
  92 0040 13010101 		addi	sp,sp,16
  93              		.cfi_def_cfa_offset 0
  94 0044 67800000 		jr	ra
  95              	.LVL4:
GAS LISTING /tmp/ccIG0UGd.s 			page 4


  96              	.L8:
  97 0048 67800000 		ret
  98              		.cfi_endproc
  99              	.LFE87:
 101              		.align	2
 102              		.globl	_ZN9SemaphoreD2Ev
 104              	_ZN9SemaphoreD2Ev:
 105              	.LFB92:
  49:src/syscall_cpp.cpp **** 
  50:src/syscall_cpp.cpp **** Semaphore::Semaphore(unsigned int init) {
  51:src/syscall_cpp.cpp ****     sem_open(&myHandle, init);
  52:src/syscall_cpp.cpp **** }
  53:src/syscall_cpp.cpp **** 
  54:src/syscall_cpp.cpp **** Semaphore::~Semaphore() {
 106              		.loc 2 54 1 is_stmt 1
 107              		.cfi_startproc
 108              		.cfi_personality 0x9b,DW.ref.__gxx_personality_v0
 109              		.cfi_lsda 0x1b,.LLSDA92
 110              	.LVL5:
 111 004c 130101FF 		addi	sp,sp,-16
 112              		.cfi_def_cfa_offset 16
 113 0050 23341100 		sd	ra,8(sp)
 114 0054 23308100 		sd	s0,0(sp)
 115              		.cfi_offset 1, -8
 116              		.cfi_offset 8, -16
 117 0058 13040101 		addi	s0,sp,16
 118              		.cfi_def_cfa 8, 0
 119              	.LBB2:
 120              		.loc 2 54 23 is_stmt 0
 121 005c 97070000 		lla	a5,_ZTV9Semaphore+16
 121      93870700 
 122 0064 2330F500 		sd	a5,0(a0)
  55:src/syscall_cpp.cpp ****     sem_close(myHandle);
 123              		.loc 2 55 5 is_stmt 1
 124              		.loc 2 55 14 is_stmt 0
 125 0068 03358500 		ld	a0,8(a0)
 126              	.LVL6:
 127 006c 97000000 		call	_Z9sem_closeP3sem@plt
 127      E7800000 
 128              	.LVL7:
 129              	.LBE2:
  56:src/syscall_cpp.cpp **** }
 130              		.loc 2 56 1
 131 0074 83308100 		ld	ra,8(sp)
 132              		.cfi_restore 1
 133 0078 03340100 		ld	s0,0(sp)
 134              		.cfi_restore 8
 135              		.cfi_def_cfa 2, 16
 136 007c 13010101 		addi	sp,sp,16
 137              		.cfi_def_cfa_offset 0
 138 0080 67800000 		jr	ra
 139              		.cfi_endproc
 140              	.LFE92:
 141              		.globl	__gxx_personality_v0
 142              		.section	.gcc_except_table,"a",@progbits
 143              	.LLSDA92:
 144 0000 FF       		.byte	0xff
GAS LISTING /tmp/ccIG0UGd.s 			page 5


 145 0001 FF       		.byte	0xff
 146 0002 03       		.byte	0x3
 147 0003 00       		.byte	0
 148              		.text
 150              		.globl	_ZN9SemaphoreD1Ev
 151              		.set	_ZN9SemaphoreD1Ev,_ZN9SemaphoreD2Ev
 152              		.align	2
 153              		.globl	_Znwm
 155              	_Znwm:
 156              	.LFB70:
   4:src/syscall_cpp.cpp ****     return mem_alloc(CONVERT_SIZE_TO_BLOCKS(size));
 157              		.loc 2 4 33 is_stmt 1
 158              		.cfi_startproc
 159              	.LVL8:
 160 0084 130101FF 		addi	sp,sp,-16
 161              		.cfi_def_cfa_offset 16
 162 0088 23341100 		sd	ra,8(sp)
 163 008c 23308100 		sd	s0,0(sp)
 164              		.cfi_offset 1, -8
 165              		.cfi_offset 8, -16
 166 0090 13040101 		addi	s0,sp,16
 167              		.cfi_def_cfa 8, 0
   5:src/syscall_cpp.cpp **** }
 168              		.loc 2 5 5
   5:src/syscall_cpp.cpp **** }
 169              		.loc 2 5 22 is_stmt 0
 170 0094 1305F50F 		addi	a0,a0,255
 171              	.LVL9:
   5:src/syscall_cpp.cpp **** }
 172              		.loc 2 5 21
 173 0098 13558500 		srli	a0,a0,8
 174              	.LVL10:
 175 009c 97000000 		call	_Z9mem_allocm@plt
 175      E7800000 
 176              	.LVL11:
   6:src/syscall_cpp.cpp **** 
 177              		.loc 2 6 1
 178 00a4 83308100 		ld	ra,8(sp)
 179              		.cfi_restore 1
 180 00a8 03340100 		ld	s0,0(sp)
 181              		.cfi_restore 8
 182              		.cfi_def_cfa 2, 16
 183 00ac 13010101 		addi	sp,sp,16
 184              		.cfi_def_cfa_offset 0
 185 00b0 67800000 		jr	ra
 186              		.cfi_endproc
 187              	.LFE70:
 189              		.align	2
 190              		.globl	_Znam
 192              	_Znam:
 193              	.LFB71:
   8:src/syscall_cpp.cpp ****     return mem_alloc(CONVERT_SIZE_TO_BLOCKS(size));
 194              		.loc 2 8 35 is_stmt 1
 195              		.cfi_startproc
 196              	.LVL12:
 197 00b4 130101FF 		addi	sp,sp,-16
 198              		.cfi_def_cfa_offset 16
GAS LISTING /tmp/ccIG0UGd.s 			page 6


 199 00b8 23341100 		sd	ra,8(sp)
 200 00bc 23308100 		sd	s0,0(sp)
 201              		.cfi_offset 1, -8
 202              		.cfi_offset 8, -16
 203 00c0 13040101 		addi	s0,sp,16
 204              		.cfi_def_cfa 8, 0
   9:src/syscall_cpp.cpp **** }
 205              		.loc 2 9 5
   9:src/syscall_cpp.cpp **** }
 206              		.loc 2 9 22 is_stmt 0
 207 00c4 1305F50F 		addi	a0,a0,255
 208              	.LVL13:
   9:src/syscall_cpp.cpp **** }
 209              		.loc 2 9 21
 210 00c8 13558500 		srli	a0,a0,8
 211              	.LVL14:
 212 00cc 97000000 		call	_Z9mem_allocm@plt
 212      E7800000 
 213              	.LVL15:
  10:src/syscall_cpp.cpp **** 
 214              		.loc 2 10 1
 215 00d4 83308100 		ld	ra,8(sp)
 216              		.cfi_restore 1
 217 00d8 03340100 		ld	s0,0(sp)
 218              		.cfi_restore 8
 219              		.cfi_def_cfa 2, 16
 220 00dc 13010101 		addi	sp,sp,16
 221              		.cfi_def_cfa_offset 0
 222 00e0 67800000 		jr	ra
 223              		.cfi_endproc
 224              	.LFE71:
 226              		.align	2
 227              		.globl	_ZdlPv
 229              	_ZdlPv:
 230              	.LFB72:
  12:src/syscall_cpp.cpp **** mem_free(ptr);
 231              		.loc 2 12 42 is_stmt 1
 232              		.cfi_startproc
 233              		.cfi_personality 0x9b,DW.ref.__gxx_personality_v0
 234              		.cfi_lsda 0x1b,.LLSDA72
 235              	.LVL16:
 236 00e4 130101FF 		addi	sp,sp,-16
 237              		.cfi_def_cfa_offset 16
 238 00e8 23341100 		sd	ra,8(sp)
 239 00ec 23308100 		sd	s0,0(sp)
 240              		.cfi_offset 1, -8
 241              		.cfi_offset 8, -16
 242 00f0 13040101 		addi	s0,sp,16
 243              		.cfi_def_cfa 8, 0
  13:src/syscall_cpp.cpp **** }
 244              		.loc 2 13 1
  13:src/syscall_cpp.cpp **** }
 245              		.loc 2 13 9 is_stmt 0
 246 00f4 97000000 		call	_Z8mem_freePv@plt
 246      E7800000 
 247              	.LVL17:
  14:src/syscall_cpp.cpp **** 
GAS LISTING /tmp/ccIG0UGd.s 			page 7


 248              		.loc 2 14 1
 249 00fc 83308100 		ld	ra,8(sp)
 250              		.cfi_restore 1
 251 0100 03340100 		ld	s0,0(sp)
 252              		.cfi_restore 8
 253              		.cfi_def_cfa 2, 16
 254 0104 13010101 		addi	sp,sp,16
 255              		.cfi_def_cfa_offset 0
 256 0108 67800000 		jr	ra
 257              		.cfi_endproc
 258              	.LFE72:
 259              		.section	.gcc_except_table
 260              	.LLSDA72:
 261 0004 FF       		.byte	0xff
 262 0005 FF       		.byte	0xff
 263 0006 03       		.byte	0x3
 264 0007 00       		.byte	0
 265              		.text
 267              		.align	2
 268              		.globl	_ZN6ThreadD0Ev
 270              	_ZN6ThreadD0Ev:
 271              	.LFB83:
  13:src/../h/syscall_cpp.hpp **** public:
 272              		.loc 1 13 7 is_stmt 1
 273              		.cfi_startproc
 274              	.LVL18:
 275 010c 130101FF 		addi	sp,sp,-16
 276              		.cfi_def_cfa_offset 16
 277 0110 23341100 		sd	ra,8(sp)
 278 0114 23308100 		sd	s0,0(sp)
 279              		.cfi_offset 1, -8
 280              		.cfi_offset 8, -16
 281 0118 13040101 		addi	s0,sp,16
 282              		.cfi_def_cfa 8, 0
  13:src/../h/syscall_cpp.hpp **** public:
 283              		.loc 1 13 7 is_stmt 0
 284 011c 97000000 		call	_ZdlPv
 284      E7800000 
 285              	.LVL19:
 286 0124 83308100 		ld	ra,8(sp)
 287              		.cfi_restore 1
 288 0128 03340100 		ld	s0,0(sp)
 289              		.cfi_restore 8
 290              		.cfi_def_cfa 2, 16
 291 012c 13010101 		addi	sp,sp,16
 292              		.cfi_def_cfa_offset 0
 293 0130 67800000 		jr	ra
 294              		.cfi_endproc
 295              	.LFE83:
 297              		.align	2
 298              		.globl	_ZN9SemaphoreD0Ev
 300              	_ZN9SemaphoreD0Ev:
 301              	.LFB94:
  54:src/syscall_cpp.cpp ****     sem_close(myHandle);
 302              		.loc 2 54 1 is_stmt 1
 303              		.cfi_startproc
 304              	.LVL20:
GAS LISTING /tmp/ccIG0UGd.s 			page 8


 305 0134 130101FE 		addi	sp,sp,-32
 306              		.cfi_def_cfa_offset 32
 307 0138 233C1100 		sd	ra,24(sp)
 308 013c 23388100 		sd	s0,16(sp)
 309 0140 23349100 		sd	s1,8(sp)
 310              		.cfi_offset 1, -8
 311              		.cfi_offset 8, -16
 312              		.cfi_offset 9, -24
 313 0144 13040102 		addi	s0,sp,32
 314              		.cfi_def_cfa 8, 0
 315 0148 93040500 		mv	s1,a0
 316              		.loc 2 56 1 is_stmt 0
 317 014c 97000000 		call	_ZN9SemaphoreD1Ev
 317      E7800000 
 318              	.LVL21:
 319 0154 13850400 		mv	a0,s1
 320 0158 97000000 		call	_ZdlPv
 320      E7800000 
 321              	.LVL22:
 322 0160 83308101 		ld	ra,24(sp)
 323              		.cfi_restore 1
 324 0164 03340101 		ld	s0,16(sp)
 325              		.cfi_restore 8
 326              		.cfi_def_cfa 2, 32
 327 0168 83348100 		ld	s1,8(sp)
 328              		.cfi_restore 9
 329              	.LVL23:
 330 016c 13010102 		addi	sp,sp,32
 331              		.cfi_def_cfa_offset 0
 332 0170 67800000 		jr	ra
 333              		.cfi_endproc
 334              	.LFE94:
 336              		.align	2
 337              		.globl	_ZdaPv
 339              	_ZdaPv:
 340              	.LFB73:
  16:src/syscall_cpp.cpp **** mem_free(ptr);
 341              		.loc 2 16 44 is_stmt 1
 342              		.cfi_startproc
 343              		.cfi_personality 0x9b,DW.ref.__gxx_personality_v0
 344              		.cfi_lsda 0x1b,.LLSDA73
 345              	.LVL24:
 346 0174 130101FF 		addi	sp,sp,-16
 347              		.cfi_def_cfa_offset 16
 348 0178 23341100 		sd	ra,8(sp)
 349 017c 23308100 		sd	s0,0(sp)
 350              		.cfi_offset 1, -8
 351              		.cfi_offset 8, -16
 352 0180 13040101 		addi	s0,sp,16
 353              		.cfi_def_cfa 8, 0
  17:src/syscall_cpp.cpp **** }
 354              		.loc 2 17 1
  17:src/syscall_cpp.cpp **** }
 355              		.loc 2 17 9 is_stmt 0
 356 0184 97000000 		call	_Z8mem_freePv@plt
 356      E7800000 
 357              	.LVL25:
GAS LISTING /tmp/ccIG0UGd.s 			page 9


  18:src/syscall_cpp.cpp **** 
 358              		.loc 2 18 1
 359 018c 83308100 		ld	ra,8(sp)
 360              		.cfi_restore 1
 361 0190 03340100 		ld	s0,0(sp)
 362              		.cfi_restore 8
 363              		.cfi_def_cfa 2, 16
 364 0194 13010101 		addi	sp,sp,16
 365              		.cfi_def_cfa_offset 0
 366 0198 67800000 		jr	ra
 367              		.cfi_endproc
 368              	.LFE73:
 369              		.section	.gcc_except_table
 370              	.LLSDA73:
 371 0008 FF       		.byte	0xff
 372 0009 FF       		.byte	0xff
 373 000a 03       		.byte	0x3
 374 000b 00       		.byte	0
 375              		.text
 377              		.align	2
 378              		.globl	_ZN6ThreadC2EPFvPvES0_
 380              	_ZN6ThreadC2EPFvPvES0_:
 381              	.LFB75:
  20:src/syscall_cpp.cpp ****     this->body = body;
 382              		.loc 2 20 1 is_stmt 1
 383              		.cfi_startproc
 384              	.LVL26:
 385 019c 130101FF 		addi	sp,sp,-16
 386              		.cfi_def_cfa_offset 16
 387 01a0 23348100 		sd	s0,8(sp)
 388              		.cfi_offset 8, -8
 389 01a4 13040101 		addi	s0,sp,16
 390              		.cfi_def_cfa 8, 0
 391              	.LBB3:
  20:src/syscall_cpp.cpp ****     this->body = body;
 392              		.loc 2 20 47 is_stmt 0
 393 01a8 97070000 		lla	a5,_ZTV6Thread+16
 393      93870700 
 394 01b0 2330F500 		sd	a5,0(a0)
  21:src/syscall_cpp.cpp ****     this->arg = arg;
 395              		.loc 2 21 5 is_stmt 1
  21:src/syscall_cpp.cpp ****     this->arg = arg;
 396              		.loc 2 21 16 is_stmt 0
 397 01b4 2338B500 		sd	a1,16(a0)
  22:src/syscall_cpp.cpp ****     this->myHandle = nullptr;
 398              		.loc 2 22 5 is_stmt 1
  22:src/syscall_cpp.cpp ****     this->myHandle = nullptr;
 399              		.loc 2 22 15 is_stmt 0
 400 01b8 233CC500 		sd	a2,24(a0)
  23:src/syscall_cpp.cpp **** }
 401              		.loc 2 23 5 is_stmt 1
  23:src/syscall_cpp.cpp **** }
 402              		.loc 2 23 20 is_stmt 0
 403 01bc 23340500 		sd	zero,8(a0)
 404              	.LBE3:
  24:src/syscall_cpp.cpp **** 
 405              		.loc 2 24 1
GAS LISTING /tmp/ccIG0UGd.s 			page 10


 406 01c0 03348100 		ld	s0,8(sp)
 407              		.cfi_restore 8
 408              		.cfi_def_cfa 2, 16
 409 01c4 13010101 		addi	sp,sp,16
 410              		.cfi_def_cfa_offset 0
 411 01c8 67800000 		jr	ra
 412              		.cfi_endproc
 413              	.LFE75:
 415              		.globl	_ZN6ThreadC1EPFvPvES0_
 416              		.set	_ZN6ThreadC1EPFvPvES0_,_ZN6ThreadC2EPFvPvES0_
 417              		.align	2
 418              		.globl	_ZN6Thread5startEv
 420              	_ZN6Thread5startEv:
 421              	.LFB77:
  26:src/syscall_cpp.cpp ****     return thread_create(&this->myHandle, this->body, this->arg);
 422              		.loc 2 26 21 is_stmt 1
 423              		.cfi_startproc
 424              	.LVL27:
 425 01cc 130101FF 		addi	sp,sp,-16
 426              		.cfi_def_cfa_offset 16
 427 01d0 23341100 		sd	ra,8(sp)
 428 01d4 23308100 		sd	s0,0(sp)
 429              		.cfi_offset 1, -8
 430              		.cfi_offset 8, -16
 431 01d8 13040101 		addi	s0,sp,16
 432              		.cfi_def_cfa 8, 0
  27:src/syscall_cpp.cpp **** }
 433              		.loc 2 27 5
  27:src/syscall_cpp.cpp **** }
 434              		.loc 2 27 25 is_stmt 0
 435 01dc 03368501 		ld	a2,24(a0)
 436 01e0 83350501 		ld	a1,16(a0)
 437 01e4 13058500 		addi	a0,a0,8
 438              	.LVL28:
 439 01e8 97000000 		call	_Z13thread_createPP3TCBPFvPvES2_@plt
 439      E7800000 
 440              	.LVL29:
  28:src/syscall_cpp.cpp **** 
 441              		.loc 2 28 1
 442 01f0 83308100 		ld	ra,8(sp)
 443              		.cfi_restore 1
 444 01f4 03340100 		ld	s0,0(sp)
 445              		.cfi_restore 8
 446              		.cfi_def_cfa 2, 16
 447 01f8 13010101 		addi	sp,sp,16
 448              		.cfi_def_cfa_offset 0
 449 01fc 67800000 		jr	ra
 450              		.cfi_endproc
 451              	.LFE77:
 453              		.align	2
 454              		.globl	_ZN6Thread8dispatchEv
 456              	_ZN6Thread8dispatchEv:
 457              	.LFB78:
  30:src/syscall_cpp.cpp ****     thread_dispatch();
 458              		.loc 2 30 25 is_stmt 1
 459              		.cfi_startproc
 460 0200 130101FF 		addi	sp,sp,-16
GAS LISTING /tmp/ccIG0UGd.s 			page 11


 461              		.cfi_def_cfa_offset 16
 462 0204 23341100 		sd	ra,8(sp)
 463 0208 23308100 		sd	s0,0(sp)
 464              		.cfi_offset 1, -8
 465              		.cfi_offset 8, -16
 466 020c 13040101 		addi	s0,sp,16
 467              		.cfi_def_cfa 8, 0
  31:src/syscall_cpp.cpp **** }
 468              		.loc 2 31 5
  31:src/syscall_cpp.cpp **** }
 469              		.loc 2 31 20 is_stmt 0
 470 0210 97000000 		call	_Z15thread_dispatchv@plt
 470      E7800000 
 471              	.LVL30:
  32:src/syscall_cpp.cpp **** 
 472              		.loc 2 32 1
 473 0218 83308100 		ld	ra,8(sp)
 474              		.cfi_restore 1
 475 021c 03340100 		ld	s0,0(sp)
 476              		.cfi_restore 8
 477              		.cfi_def_cfa 2, 16
 478 0220 13010101 		addi	sp,sp,16
 479              		.cfi_def_cfa_offset 0
 480 0224 67800000 		jr	ra
 481              		.cfi_endproc
 482              	.LFE78:
 484              		.align	2
 485              		.globl	_ZN6Thread5sleepEm
 487              	_ZN6Thread5sleepEm:
 488              	.LFB79:
  34:src/syscall_cpp.cpp ****     return time_sleep(t);
 489              		.loc 2 34 29 is_stmt 1
 490              		.cfi_startproc
 491              	.LVL31:
 492 0228 130101FF 		addi	sp,sp,-16
 493              		.cfi_def_cfa_offset 16
 494 022c 23341100 		sd	ra,8(sp)
 495 0230 23308100 		sd	s0,0(sp)
 496              		.cfi_offset 1, -8
 497              		.cfi_offset 8, -16
 498 0234 13040101 		addi	s0,sp,16
 499              		.cfi_def_cfa 8, 0
  35:src/syscall_cpp.cpp **** }
 500              		.loc 2 35 5
  35:src/syscall_cpp.cpp **** }
 501              		.loc 2 35 22 is_stmt 0
 502 0238 97000000 		call	_Z10time_sleepm@plt
 502      E7800000 
 503              	.LVL32:
  36:src/syscall_cpp.cpp **** 
 504              		.loc 2 36 1
 505 0240 83308100 		ld	ra,8(sp)
 506              		.cfi_restore 1
 507 0244 03340100 		ld	s0,0(sp)
 508              		.cfi_restore 8
 509              		.cfi_def_cfa 2, 16
 510 0248 13010101 		addi	sp,sp,16
GAS LISTING /tmp/ccIG0UGd.s 			page 12


 511              		.cfi_def_cfa_offset 0
 512 024c 67800000 		jr	ra
 513              		.cfi_endproc
 514              	.LFE79:
 516              		.align	2
 517              		.globl	_ZN6ThreadC2Ev
 519              	_ZN6ThreadC2Ev:
 520              	.LFB85:
  40:src/syscall_cpp.cpp ****     this->body = wrapper;
 521              		.loc 2 40 1 is_stmt 1
 522              		.cfi_startproc
 523              	.LVL33:
 524 0250 130101FF 		addi	sp,sp,-16
 525              		.cfi_def_cfa_offset 16
 526 0254 23348100 		sd	s0,8(sp)
 527              		.cfi_offset 8, -8
 528 0258 13040101 		addi	s0,sp,16
 529              		.cfi_def_cfa 8, 0
 530              	.LBB4:
  40:src/syscall_cpp.cpp ****     this->body = wrapper;
 531              		.loc 2 40 16 is_stmt 0
 532 025c 97070000 		lla	a5,_ZTV6Thread+16
 532      93870700 
 533 0264 2330F500 		sd	a5,0(a0)
  41:src/syscall_cpp.cpp ****     this->arg = this;
 534              		.loc 2 41 5 is_stmt 1
  41:src/syscall_cpp.cpp ****     this->arg = this;
 535              		.loc 2 41 16 is_stmt 0
 536 0268 97070000 		lla	a5,_ZN6Thread7wrapperEPv
 536      93870700 
 537 0270 2338F500 		sd	a5,16(a0)
  42:src/syscall_cpp.cpp ****     this->myHandle = nullptr;
 538              		.loc 2 42 5 is_stmt 1
  42:src/syscall_cpp.cpp ****     this->myHandle = nullptr;
 539              		.loc 2 42 15 is_stmt 0
 540 0274 233CA500 		sd	a0,24(a0)
  43:src/syscall_cpp.cpp **** }
 541              		.loc 2 43 5 is_stmt 1
  43:src/syscall_cpp.cpp **** }
 542              		.loc 2 43 20 is_stmt 0
 543 0278 23340500 		sd	zero,8(a0)
 544              	.LBE4:
  44:src/syscall_cpp.cpp **** 
 545              		.loc 2 44 1
 546 027c 03348100 		ld	s0,8(sp)
 547              		.cfi_restore 8
 548              		.cfi_def_cfa 2, 16
 549 0280 13010101 		addi	sp,sp,16
 550              		.cfi_def_cfa_offset 0
 551 0284 67800000 		jr	ra
 552              		.cfi_endproc
 553              	.LFE85:
 555              		.globl	_ZN6ThreadC1Ev
 556              		.set	_ZN6ThreadC1Ev,_ZN6ThreadC2Ev
 557              		.align	2
 558              		.globl	_ZN9SemaphoreC2Ej
 560              	_ZN9SemaphoreC2Ej:
GAS LISTING /tmp/ccIG0UGd.s 			page 13


 561              	.LFB89:
  50:src/syscall_cpp.cpp ****     sem_open(&myHandle, init);
 562              		.loc 2 50 1 is_stmt 1
 563              		.cfi_startproc
 564              	.LVL34:
 565 0288 130101FF 		addi	sp,sp,-16
 566              		.cfi_def_cfa_offset 16
 567 028c 23341100 		sd	ra,8(sp)
 568 0290 23308100 		sd	s0,0(sp)
 569              		.cfi_offset 1, -8
 570              		.cfi_offset 8, -16
 571 0294 13040101 		addi	s0,sp,16
 572              		.cfi_def_cfa 8, 0
 573              	.LBB5:
  50:src/syscall_cpp.cpp ****     sem_open(&myHandle, init);
 574              		.loc 2 50 39 is_stmt 0
 575 0298 97070000 		lla	a5,_ZTV9Semaphore+16
 575      93870700 
 576 02a0 2330F500 		sd	a5,0(a0)
  51:src/syscall_cpp.cpp **** }
 577              		.loc 2 51 5 is_stmt 1
  51:src/syscall_cpp.cpp **** }
 578              		.loc 2 51 13 is_stmt 0
 579 02a4 13058500 		addi	a0,a0,8
 580              	.LVL35:
 581 02a8 97000000 		call	_Z8sem_openPP3semj@plt
 581      E7800000 
 582              	.LVL36:
 583              	.LBE5:
  52:src/syscall_cpp.cpp **** 
 584              		.loc 2 52 1
 585 02b0 83308100 		ld	ra,8(sp)
 586              		.cfi_restore 1
 587 02b4 03340100 		ld	s0,0(sp)
 588              		.cfi_restore 8
 589              		.cfi_def_cfa 2, 16
 590 02b8 13010101 		addi	sp,sp,16
 591              		.cfi_def_cfa_offset 0
 592 02bc 67800000 		jr	ra
 593              		.cfi_endproc
 594              	.LFE89:
 596              		.globl	_ZN9SemaphoreC1Ej
 597              		.set	_ZN9SemaphoreC1Ej,_ZN9SemaphoreC2Ej
 598              		.align	2
 599              		.globl	_ZN9Semaphore4waitEv
 601              	_ZN9Semaphore4waitEv:
 602              	.LFB95:
  57:src/syscall_cpp.cpp **** 
  58:src/syscall_cpp.cpp **** int Semaphore::wait() {
 603              		.loc 2 58 23 is_stmt 1
 604              		.cfi_startproc
 605              	.LVL37:
 606 02c0 130101FF 		addi	sp,sp,-16
 607              		.cfi_def_cfa_offset 16
 608 02c4 23341100 		sd	ra,8(sp)
 609 02c8 23308100 		sd	s0,0(sp)
 610              		.cfi_offset 1, -8
GAS LISTING /tmp/ccIG0UGd.s 			page 14


 611              		.cfi_offset 8, -16
 612 02cc 13040101 		addi	s0,sp,16
 613              		.cfi_def_cfa 8, 0
  59:src/syscall_cpp.cpp ****     return sem_wait(myHandle);
 614              		.loc 2 59 5
 615              		.loc 2 59 20 is_stmt 0
 616 02d0 03358500 		ld	a0,8(a0)
 617              	.LVL38:
 618 02d4 97000000 		call	_Z8sem_waitP3sem@plt
 618      E7800000 
 619              	.LVL39:
  60:src/syscall_cpp.cpp **** }
 620              		.loc 2 60 1
 621 02dc 83308100 		ld	ra,8(sp)
 622              		.cfi_restore 1
 623 02e0 03340100 		ld	s0,0(sp)
 624              		.cfi_restore 8
 625              		.cfi_def_cfa 2, 16
 626 02e4 13010101 		addi	sp,sp,16
 627              		.cfi_def_cfa_offset 0
 628 02e8 67800000 		jr	ra
 629              		.cfi_endproc
 630              	.LFE95:
 632              		.align	2
 633              		.globl	_ZN9Semaphore6signalEv
 635              	_ZN9Semaphore6signalEv:
 636              	.LFB96:
  61:src/syscall_cpp.cpp **** 
  62:src/syscall_cpp.cpp **** int Semaphore::signal() {
 637              		.loc 2 62 25 is_stmt 1
 638              		.cfi_startproc
 639              	.LVL40:
 640 02ec 130101FF 		addi	sp,sp,-16
 641              		.cfi_def_cfa_offset 16
 642 02f0 23341100 		sd	ra,8(sp)
 643 02f4 23308100 		sd	s0,0(sp)
 644              		.cfi_offset 1, -8
 645              		.cfi_offset 8, -16
 646 02f8 13040101 		addi	s0,sp,16
 647              		.cfi_def_cfa 8, 0
  63:src/syscall_cpp.cpp ****     return sem_signal(myHandle);
 648              		.loc 2 63 5
 649              		.loc 2 63 22 is_stmt 0
 650 02fc 03358500 		ld	a0,8(a0)
 651              	.LVL41:
 652 0300 97000000 		call	_Z10sem_signalP3sem@plt
 652      E7800000 
 653              	.LVL42:
  64:src/syscall_cpp.cpp **** }
 654              		.loc 2 64 1
 655 0308 83308100 		ld	ra,8(sp)
 656              		.cfi_restore 1
 657 030c 03340100 		ld	s0,0(sp)
 658              		.cfi_restore 8
 659              		.cfi_def_cfa 2, 16
 660 0310 13010101 		addi	sp,sp,16
 661              		.cfi_def_cfa_offset 0
GAS LISTING /tmp/ccIG0UGd.s 			page 15


 662 0314 67800000 		jr	ra
 663              		.cfi_endproc
 664              	.LFE96:
 666              		.align	2
 667              		.globl	_ZN9Semaphore9timedWaitEm
 669              	_ZN9Semaphore9timedWaitEm:
 670              	.LFB97:
  65:src/syscall_cpp.cpp **** 
  66:src/syscall_cpp.cpp **** int Semaphore::timedWait(time_t timeout) {
 671              		.loc 2 66 42 is_stmt 1
 672              		.cfi_startproc
 673              	.LVL43:
 674 0318 130101FF 		addi	sp,sp,-16
 675              		.cfi_def_cfa_offset 16
 676 031c 23341100 		sd	ra,8(sp)
 677 0320 23308100 		sd	s0,0(sp)
 678              		.cfi_offset 1, -8
 679              		.cfi_offset 8, -16
 680 0324 13040101 		addi	s0,sp,16
 681              		.cfi_def_cfa 8, 0
  67:src/syscall_cpp.cpp ****     return sem_timedwait(myHandle, timeout);
 682              		.loc 2 67 5
 683              		.loc 2 67 25 is_stmt 0
 684 0328 03358500 		ld	a0,8(a0)
 685              	.LVL44:
 686 032c 97000000 		call	_Z13sem_timedwaitP3semm@plt
 686      E7800000 
 687              	.LVL45:
  68:src/syscall_cpp.cpp **** }
 688              		.loc 2 68 1
 689 0334 83308100 		ld	ra,8(sp)
 690              		.cfi_restore 1
 691 0338 03340100 		ld	s0,0(sp)
 692              		.cfi_restore 8
 693              		.cfi_def_cfa 2, 16
 694 033c 13010101 		addi	sp,sp,16
 695              		.cfi_def_cfa_offset 0
 696 0340 67800000 		jr	ra
 697              		.cfi_endproc
 698              	.LFE97:
 700              		.align	2
 701              		.globl	_ZN9Semaphore7tryWaitEv
 703              	_ZN9Semaphore7tryWaitEv:
 704              	.LFB98:
  69:src/syscall_cpp.cpp **** 
  70:src/syscall_cpp.cpp **** int Semaphore::tryWait() {
 705              		.loc 2 70 26 is_stmt 1
 706              		.cfi_startproc
 707              	.LVL46:
 708 0344 130101FF 		addi	sp,sp,-16
 709              		.cfi_def_cfa_offset 16
 710 0348 23341100 		sd	ra,8(sp)
 711 034c 23308100 		sd	s0,0(sp)
 712              		.cfi_offset 1, -8
 713              		.cfi_offset 8, -16
 714 0350 13040101 		addi	s0,sp,16
 715              		.cfi_def_cfa 8, 0
GAS LISTING /tmp/ccIG0UGd.s 			page 16


  71:src/syscall_cpp.cpp ****     return sem_trywait(myHandle);
 716              		.loc 2 71 5
 717              		.loc 2 71 23 is_stmt 0
 718 0354 03358500 		ld	a0,8(a0)
 719              	.LVL47:
 720 0358 97000000 		call	_Z11sem_trywaitP3sem@plt
 720      E7800000 
 721              	.LVL48:
  72:src/syscall_cpp.cpp **** }
 722              		.loc 2 72 1
 723 0360 83308100 		ld	ra,8(sp)
 724              		.cfi_restore 1
 725 0364 03340100 		ld	s0,0(sp)
 726              		.cfi_restore 8
 727              		.cfi_def_cfa 2, 16
 728 0368 13010101 		addi	sp,sp,16
 729              		.cfi_def_cfa_offset 0
 730 036c 67800000 		jr	ra
 731              		.cfi_endproc
 732              	.LFE98:
 734              		.align	2
 735              		.globl	_ZN7Console4getcEv
 737              	_ZN7Console4getcEv:
 738              	.LFB99:
  73:src/syscall_cpp.cpp **** 
  74:src/syscall_cpp.cpp **** 
  75:src/syscall_cpp.cpp **** char Console::getc() {
 739              		.loc 2 75 22 is_stmt 1
 740              		.cfi_startproc
 741 0370 130101FF 		addi	sp,sp,-16
 742              		.cfi_def_cfa_offset 16
 743 0374 23341100 		sd	ra,8(sp)
 744 0378 23308100 		sd	s0,0(sp)
 745              		.cfi_offset 1, -8
 746              		.cfi_offset 8, -16
 747 037c 13040101 		addi	s0,sp,16
 748              		.cfi_def_cfa 8, 0
  76:src/syscall_cpp.cpp ****     ::getc();
 749              		.loc 2 76 5
 750              		.loc 2 76 11 is_stmt 0
 751 0380 97000000 		call	_Z4getcv@plt
 751      E7800000 
 752              	.LVL49:
  77:src/syscall_cpp.cpp ****     return 0;
 753              		.loc 2 77 5 is_stmt 1
  78:src/syscall_cpp.cpp **** }
 754              		.loc 2 78 1 is_stmt 0
 755 0388 13050000 		li	a0,0
 756 038c 83308100 		ld	ra,8(sp)
 757              		.cfi_restore 1
 758 0390 03340100 		ld	s0,0(sp)
 759              		.cfi_restore 8
 760              		.cfi_def_cfa 2, 16
 761 0394 13010101 		addi	sp,sp,16
 762              		.cfi_def_cfa_offset 0
 763 0398 67800000 		jr	ra
 764              		.cfi_endproc
GAS LISTING /tmp/ccIG0UGd.s 			page 17


 765              	.LFE99:
 767              		.align	2
 768              		.globl	_ZN7Console4putcEc
 770              	_ZN7Console4putcEc:
 771              	.LFB100:
  79:src/syscall_cpp.cpp **** 
  80:src/syscall_cpp.cpp **** 
  81:src/syscall_cpp.cpp **** void Console::putc(char c) {
 772              		.loc 2 81 28 is_stmt 1
 773              		.cfi_startproc
 774              	.LVL50:
 775 039c 130101FF 		addi	sp,sp,-16
 776              		.cfi_def_cfa_offset 16
 777 03a0 23341100 		sd	ra,8(sp)
 778 03a4 23308100 		sd	s0,0(sp)
 779              		.cfi_offset 1, -8
 780              		.cfi_offset 8, -16
 781 03a8 13040101 		addi	s0,sp,16
 782              		.cfi_def_cfa 8, 0
  82:src/syscall_cpp.cpp ****     ::putc(c);
 783              		.loc 2 82 5
 784              		.loc 2 82 11 is_stmt 0
 785 03ac 97000000 		call	_Z4putcc@plt
 785      E7800000 
 786              	.LVL51:
  83:src/syscall_cpp.cpp **** }
 787              		.loc 2 83 1
 788 03b4 83308100 		ld	ra,8(sp)
 789              		.cfi_restore 1
 790 03b8 03340100 		ld	s0,0(sp)
 791              		.cfi_restore 8
 792              		.cfi_def_cfa 2, 16
 793 03bc 13010101 		addi	sp,sp,16
 794              		.cfi_def_cfa_offset 0
 795 03c0 67800000 		jr	ra
 796              		.cfi_endproc
 797              	.LFE100:
 799              		.weak	_ZTV6Thread
 800              		.section	.data.rel.ro.local._ZTV6Thread,"awG",@progbits,_ZTV6Thread,comdat
 801              		.align	3
 804              	_ZTV6Thread:
 805 0000 00000000 		.dword	0
 805      00000000 
 806 0008 00000000 		.dword	0
 806      00000000 
 807 0010 00000000 		.dword	_ZN6ThreadD1Ev
 807      00000000 
 808 0018 00000000 		.dword	_ZN6ThreadD0Ev
 808      00000000 
 809 0020 00000000 		.dword	_ZN6Thread3runEv
 809      00000000 
 810              		.weak	_ZTV9Semaphore
 811              		.section	.data.rel.ro.local._ZTV9Semaphore,"awG",@progbits,_ZTV9Semaphore,comdat
 812              		.align	3
 815              	_ZTV9Semaphore:
 816 0000 00000000 		.dword	0
 816      00000000 
GAS LISTING /tmp/ccIG0UGd.s 			page 18


 817 0008 00000000 		.dword	0
 817      00000000 
 818 0010 00000000 		.dword	_ZN9SemaphoreD1Ev
 818      00000000 
 819 0018 00000000 		.dword	_ZN9SemaphoreD0Ev
 819      00000000 
 820              		.text
 821              	.Letext0:
 822              		.file 3 "src/../h/../lib/hw.h"
 823              		.file 4 "src/../h/tcb.hpp"
 824              		.file 5 "src/../h/../h/../h/threadList.hpp"
 825              		.file 6 "src/../h/../h/sem.hpp"
 826              		.file 7 "src/../h/sleepingThreadList.hpp"
 827              		.file 8 "src/../h/syscall_c.hpp"
 5165              		.align	3
 5168              	DW.ref.__gxx_personality_v0:
 5169 0000 00000000 		.dword	__gxx_personality_v0
 5169      00000000 
 5170              		.ident	"GCC: (Ubuntu 9.4.0-1ubuntu1~20.04) 9.4.0"
 5171              		.section	.note.GNU-stack,"",@progbits
GAS LISTING /tmp/ccIG0UGd.s 			page 19

