GAS LISTING /tmp/ccppPwQZ.s 			page 1


   1              		.file	"buffer.cpp"
   2              		.option pic
   3              		.option norelax
   4              		.text
   5              	.Ltext0:
   6              		.align	2
   7              		.globl	_ZN6BufferC2Ei
   9              	_ZN6BufferC2Ei:
  10              	.LFB63:
  11              		.file 1 "test/buffer.cpp"
   1:test/buffer.cpp **** #include "buffer.hpp"
   2:test/buffer.cpp **** 
   3:test/buffer.cpp **** uint64 l = 0;
   4:test/buffer.cpp **** #define LOCK() while(copy_and_swap(l, 0, 1)) thread_dispatch()
   5:test/buffer.cpp **** #define UNLOCK() while(copy_and_swap(l, 1, 0))
   6:test/buffer.cpp **** 
   7:test/buffer.cpp **** Buffer::Buffer(int _cap) : cap(_cap + 1), head(0), tail(0) {
  12              		.loc 1 7 1
  13              		.cfi_startproc
  14              	.LVL0:
  15 0000 130101FE 		addi	sp,sp,-32
  16              		.cfi_def_cfa_offset 32
  17 0004 233C1100 		sd	ra,24(sp)
  18 0008 23388100 		sd	s0,16(sp)
  19 000c 23349100 		sd	s1,8(sp)
  20 0010 23302101 		sd	s2,0(sp)
  21              		.cfi_offset 1, -8
  22              		.cfi_offset 8, -16
  23              		.cfi_offset 9, -24
  24              		.cfi_offset 18, -32
  25 0014 13040102 		addi	s0,sp,32
  26              		.cfi_def_cfa 8, 0
  27 0018 93040500 		mv	s1,a0
  28 001c 13890500 		mv	s2,a1
  29              	.LBB2:
  30              		.loc 1 7 37 is_stmt 0
  31 0020 9B871500 		addiw	a5,a1,1
  32 0024 1B850700 		sext.w	a0,a5
  33              	.LVL1:
  34              		.loc 1 7 58
  35 0028 23A0F400 		sw	a5,0(s1)
  36 002c 23A80400 		sw	zero,16(s1)
  37 0030 23AA0400 		sw	zero,20(s1)
   8:test/buffer.cpp ****     buffer = (int *)mem_alloc(sizeof(int) * cap);
  38              		.loc 1 8 5 is_stmt 1
  39              		.loc 1 8 30 is_stmt 0
  40 0034 13152500 		slli	a0,a0,2
  41 0038 97000000 		call	_Z9mem_allocm@plt
  41      E7800000 
  42              	.LVL2:
  43              		.loc 1 8 12
  44 0040 23B4A400 		sd	a0,8(s1)
   9:test/buffer.cpp ****     sem_open(&itemAvailable, 0);
  45              		.loc 1 9 5 is_stmt 1
  46              		.loc 1 9 13 is_stmt 0
  47 0044 93050000 		li	a1,0
  48 0048 13850402 		addi	a0,s1,32
GAS LISTING /tmp/ccppPwQZ.s 			page 2


  49 004c 97000000 		call	_Z8sem_openPP3semj@plt
  49      E7800000 
  50              	.LVL3:
  10:test/buffer.cpp ****     sem_open(&spaceAvailable, _cap);
  51              		.loc 1 10 5 is_stmt 1
  52              		.loc 1 10 13 is_stmt 0
  53 0054 93050900 		mv	a1,s2
  54 0058 13858401 		addi	a0,s1,24
  55 005c 97000000 		call	_Z8sem_openPP3semj@plt
  55      E7800000 
  56              	.LVL4:
  11:test/buffer.cpp ****     sem_open(&mutexHead, 1);
  57              		.loc 1 11 5 is_stmt 1
  58              		.loc 1 11 13 is_stmt 0
  59 0064 93051000 		li	a1,1
  60 0068 13858402 		addi	a0,s1,40
  61 006c 97000000 		call	_Z8sem_openPP3semj@plt
  61      E7800000 
  62              	.LVL5:
  12:test/buffer.cpp ****     sem_open(&mutexTail, 1);
  63              		.loc 1 12 5 is_stmt 1
  64              		.loc 1 12 13 is_stmt 0
  65 0074 93051000 		li	a1,1
  66 0078 13850403 		addi	a0,s1,48
  67 007c 97000000 		call	_Z8sem_openPP3semj@plt
  67      E7800000 
  68              	.LVL6:
  69              	.LBE2:
  13:test/buffer.cpp **** }
  70              		.loc 1 13 1
  71 0084 83308101 		ld	ra,24(sp)
  72              		.cfi_restore 1
  73 0088 03340101 		ld	s0,16(sp)
  74              		.cfi_restore 8
  75              		.cfi_def_cfa 2, 32
  76 008c 83348100 		ld	s1,8(sp)
  77              		.cfi_restore 9
  78              	.LVL7:
  79 0090 03390100 		ld	s2,0(sp)
  80              		.cfi_restore 18
  81 0094 13010102 		addi	sp,sp,32
  82              		.cfi_def_cfa_offset 0
  83 0098 67800000 		jr	ra
  84              		.cfi_endproc
  85              	.LFE63:
  87              		.globl	_ZN6BufferC1Ei
  88              		.set	_ZN6BufferC1Ei,_ZN6BufferC2Ei
  89              		.align	2
  90              		.globl	_ZN6Buffer3putEi
  92              	_ZN6Buffer3putEi:
  93              	.LFB68:
  14:test/buffer.cpp **** 
  15:test/buffer.cpp **** Buffer::~Buffer() {
  16:test/buffer.cpp ****     putc('\n');
  17:test/buffer.cpp ****     printString("Buffer deleted!\n");
  18:test/buffer.cpp ****     while (getCnt() > 0) {
  19:test/buffer.cpp ****         char ch = buffer[head];
GAS LISTING /tmp/ccppPwQZ.s 			page 3


  20:test/buffer.cpp ****         putc(ch);
  21:test/buffer.cpp ****         head = (head + 1) % cap;
  22:test/buffer.cpp ****     }
  23:test/buffer.cpp ****     putc('!');
  24:test/buffer.cpp ****     putc('\n');
  25:test/buffer.cpp **** 
  26:test/buffer.cpp ****     mem_free(buffer);
  27:test/buffer.cpp ****     sem_close(itemAvailable);
  28:test/buffer.cpp ****     sem_close(spaceAvailable);
  29:test/buffer.cpp ****     sem_close(mutexTail);
  30:test/buffer.cpp ****     sem_close(mutexHead);
  31:test/buffer.cpp **** }
  32:test/buffer.cpp **** 
  33:test/buffer.cpp **** void Buffer::put(int val) {
  94              		.loc 1 33 27 is_stmt 1
  95              		.cfi_startproc
  96              	.LVL8:
  97 009c 130101FE 		addi	sp,sp,-32
  98              		.cfi_def_cfa_offset 32
  99 00a0 233C1100 		sd	ra,24(sp)
 100 00a4 23388100 		sd	s0,16(sp)
 101 00a8 23349100 		sd	s1,8(sp)
 102 00ac 23302101 		sd	s2,0(sp)
 103              		.cfi_offset 1, -8
 104              		.cfi_offset 8, -16
 105              		.cfi_offset 9, -24
 106              		.cfi_offset 18, -32
 107 00b0 13040102 		addi	s0,sp,32
 108              		.cfi_def_cfa 8, 0
 109 00b4 93040500 		mv	s1,a0
 110 00b8 13890500 		mv	s2,a1
  34:test/buffer.cpp ****     sem_wait(spaceAvailable);
 111              		.loc 1 34 5
 112              		.loc 1 34 13 is_stmt 0
 113 00bc 03358501 		ld	a0,24(a0)
 114              	.LVL9:
 115 00c0 97000000 		call	_Z8sem_waitP3sem@plt
 115      E7800000 
 116              	.LVL10:
  35:test/buffer.cpp **** 
  36:test/buffer.cpp ****     sem_wait(mutexTail);
 117              		.loc 1 36 5 is_stmt 1
 118              		.loc 1 36 13 is_stmt 0
 119 00c8 03B50403 		ld	a0,48(s1)
 120 00cc 97000000 		call	_Z8sem_waitP3sem@plt
 120      E7800000 
 121              	.LVL11:
  37:test/buffer.cpp **** //    LOCK();
  38:test/buffer.cpp **** //    printString("u bafer na pozicije: ");
  39:test/buffer.cpp **** //    printInt(tail);
  40:test/buffer.cpp **** //    printString("upisan je broj: ");
  41:test/buffer.cpp **** //    printInt(val);
  42:test/buffer.cpp **** //    printString("\n");
  43:test/buffer.cpp **** //    UNLOCK();
  44:test/buffer.cpp **** 
  45:test/buffer.cpp ****     buffer[tail] = val;
 122              		.loc 1 45 5 is_stmt 1
GAS LISTING /tmp/ccppPwQZ.s 			page 4


 123 00d4 83B78400 		ld	a5,8(s1)
 124              		.loc 1 45 12 is_stmt 0
 125 00d8 03A74401 		lw	a4,20(s1)
 126              		.loc 1 45 16
 127 00dc 13172700 		slli	a4,a4,2
 128 00e0 B387E700 		add	a5,a5,a4
 129              		.loc 1 45 18
 130 00e4 23A02701 		sw	s2,0(a5)
  46:test/buffer.cpp ****     tail = (tail + 1) % cap;
 131              		.loc 1 46 5 is_stmt 1
 132              		.loc 1 46 13 is_stmt 0
 133 00e8 83A74401 		lw	a5,20(s1)
 134              		.loc 1 46 18
 135 00ec 9B871700 		addiw	a5,a5,1
 136              		.loc 1 46 25
 137 00f0 03A70400 		lw	a4,0(s1)
 138              		.loc 1 46 23
 139 00f4 BBE7E702 		remw	a5,a5,a4
 140              		.loc 1 46 10
 141 00f8 23AAF400 		sw	a5,20(s1)
  47:test/buffer.cpp **** 
  48:test/buffer.cpp ****     sem_signal(mutexTail);
 142              		.loc 1 48 5 is_stmt 1
 143              		.loc 1 48 15 is_stmt 0
 144 00fc 03B50403 		ld	a0,48(s1)
 145 0100 97000000 		call	_Z10sem_signalP3sem@plt
 145      E7800000 
 146              	.LVL12:
  49:test/buffer.cpp **** 
  50:test/buffer.cpp ****     sem_signal(itemAvailable);
 147              		.loc 1 50 5 is_stmt 1
 148              		.loc 1 50 15 is_stmt 0
 149 0108 03B50402 		ld	a0,32(s1)
 150 010c 97000000 		call	_Z10sem_signalP3sem@plt
 150      E7800000 
 151              	.LVL13:
  51:test/buffer.cpp **** 
  52:test/buffer.cpp **** }
 152              		.loc 1 52 1
 153 0114 83308101 		ld	ra,24(sp)
 154              		.cfi_restore 1
 155 0118 03340101 		ld	s0,16(sp)
 156              		.cfi_restore 8
 157              		.cfi_def_cfa 2, 32
 158 011c 83348100 		ld	s1,8(sp)
 159              		.cfi_restore 9
 160              	.LVL14:
 161 0120 03390100 		ld	s2,0(sp)
 162              		.cfi_restore 18
 163 0124 13010102 		addi	sp,sp,32
 164              		.cfi_def_cfa_offset 0
 165 0128 67800000 		jr	ra
 166              		.cfi_endproc
 167              	.LFE68:
 169              		.align	2
 170              		.globl	_ZN6Buffer3getEv
 172              	_ZN6Buffer3getEv:
GAS LISTING /tmp/ccppPwQZ.s 			page 5


 173              	.LFB69:
  53:test/buffer.cpp **** 
  54:test/buffer.cpp **** int Buffer::get() {
 174              		.loc 1 54 19 is_stmt 1
 175              		.cfi_startproc
 176              	.LVL15:
 177 012c 130101FE 		addi	sp,sp,-32
 178              		.cfi_def_cfa_offset 32
 179 0130 233C1100 		sd	ra,24(sp)
 180 0134 23388100 		sd	s0,16(sp)
 181 0138 23349100 		sd	s1,8(sp)
 182 013c 23302101 		sd	s2,0(sp)
 183              		.cfi_offset 1, -8
 184              		.cfi_offset 8, -16
 185              		.cfi_offset 9, -24
 186              		.cfi_offset 18, -32
 187 0140 13040102 		addi	s0,sp,32
 188              		.cfi_def_cfa 8, 0
 189 0144 93040500 		mv	s1,a0
  55:test/buffer.cpp ****     sem_wait(itemAvailable);
 190              		.loc 1 55 5
 191              		.loc 1 55 13 is_stmt 0
 192 0148 03350502 		ld	a0,32(a0)
 193              	.LVL16:
 194 014c 97000000 		call	_Z8sem_waitP3sem@plt
 194      E7800000 
 195              	.LVL17:
  56:test/buffer.cpp **** 
  57:test/buffer.cpp ****     sem_wait(mutexHead);
 196              		.loc 1 57 5 is_stmt 1
 197              		.loc 1 57 13 is_stmt 0
 198 0154 03B58402 		ld	a0,40(s1)
 199 0158 97000000 		call	_Z8sem_waitP3sem@plt
 199      E7800000 
 200              	.LVL18:
  58:test/buffer.cpp **** 
  59:test/buffer.cpp ****     int ret = buffer[head];
 201              		.loc 1 59 5 is_stmt 1
 202              		.loc 1 59 15 is_stmt 0
 203 0160 03B78400 		ld	a4,8(s1)
 204              		.loc 1 59 22
 205 0164 83A70401 		lw	a5,16(s1)
 206              		.loc 1 59 26
 207 0168 93962700 		slli	a3,a5,2
 208 016c 3307D700 		add	a4,a4,a3
 209              		.loc 1 59 9
 210 0170 03290700 		lw	s2,0(a4)
 211              	.LVL19:
  60:test/buffer.cpp ****     head = (head + 1) % cap;
 212              		.loc 1 60 5 is_stmt 1
 213              		.loc 1 60 18 is_stmt 0
 214 0174 9B871700 		addiw	a5,a5,1
 215              		.loc 1 60 25
 216 0178 03A70400 		lw	a4,0(s1)
 217              		.loc 1 60 23
 218 017c BBE7E702 		remw	a5,a5,a4
 219              		.loc 1 60 10
GAS LISTING /tmp/ccppPwQZ.s 			page 6


 220 0180 23A8F400 		sw	a5,16(s1)
  61:test/buffer.cpp ****     sem_signal(mutexHead);
 221              		.loc 1 61 5 is_stmt 1
 222              		.loc 1 61 15 is_stmt 0
 223 0184 03B58402 		ld	a0,40(s1)
 224 0188 97000000 		call	_Z10sem_signalP3sem@plt
 224      E7800000 
 225              	.LVL20:
  62:test/buffer.cpp **** 
  63:test/buffer.cpp ****     sem_signal(spaceAvailable);
 226              		.loc 1 63 5 is_stmt 1
 227              		.loc 1 63 15 is_stmt 0
 228 0190 03B58401 		ld	a0,24(s1)
 229 0194 97000000 		call	_Z10sem_signalP3sem@plt
 229      E7800000 
 230              	.LVL21:
  64:test/buffer.cpp **** 
  65:test/buffer.cpp ****     return ret;
 231              		.loc 1 65 5 is_stmt 1
  66:test/buffer.cpp **** }
 232              		.loc 1 66 1 is_stmt 0
 233 019c 13050900 		mv	a0,s2
 234 01a0 83308101 		ld	ra,24(sp)
 235              		.cfi_restore 1
 236 01a4 03340101 		ld	s0,16(sp)
 237              		.cfi_restore 8
 238              		.cfi_def_cfa 2, 32
 239 01a8 83348100 		ld	s1,8(sp)
 240              		.cfi_restore 9
 241              	.LVL22:
 242 01ac 03390100 		ld	s2,0(sp)
 243              		.cfi_restore 18
 244              	.LVL23:
 245 01b0 13010102 		addi	sp,sp,32
 246              		.cfi_def_cfa_offset 0
 247 01b4 67800000 		jr	ra
 248              		.cfi_endproc
 249              	.LFE69:
 251              		.align	2
 252              		.globl	_ZN6Buffer6getCntEv
 254              	_ZN6Buffer6getCntEv:
 255              	.LFB70:
  67:test/buffer.cpp **** 
  68:test/buffer.cpp **** int Buffer::getCnt() {
 256              		.loc 1 68 22 is_stmt 1
 257              		.cfi_startproc
 258              	.LVL24:
 259 01b8 130101FE 		addi	sp,sp,-32
 260              		.cfi_def_cfa_offset 32
 261 01bc 233C1100 		sd	ra,24(sp)
 262 01c0 23388100 		sd	s0,16(sp)
 263 01c4 23349100 		sd	s1,8(sp)
 264 01c8 23302101 		sd	s2,0(sp)
 265              		.cfi_offset 1, -8
 266              		.cfi_offset 8, -16
 267              		.cfi_offset 9, -24
 268              		.cfi_offset 18, -32
GAS LISTING /tmp/ccppPwQZ.s 			page 7


 269 01cc 13040102 		addi	s0,sp,32
 270              		.cfi_def_cfa 8, 0
 271 01d0 93040500 		mv	s1,a0
  69:test/buffer.cpp ****     int ret;
 272              		.loc 1 69 5
  70:test/buffer.cpp **** 
  71:test/buffer.cpp ****     sem_wait(mutexHead);
 273              		.loc 1 71 5
 274              		.loc 1 71 13 is_stmt 0
 275 01d4 03358502 		ld	a0,40(a0)
 276              	.LVL25:
 277 01d8 97000000 		call	_Z8sem_waitP3sem@plt
 277      E7800000 
 278              	.LVL26:
  72:test/buffer.cpp ****     sem_wait(mutexTail);
 279              		.loc 1 72 5 is_stmt 1
 280              		.loc 1 72 13 is_stmt 0
 281 01e0 03B50403 		ld	a0,48(s1)
 282 01e4 97000000 		call	_Z8sem_waitP3sem@plt
 282      E7800000 
 283              	.LVL27:
  73:test/buffer.cpp **** 
  74:test/buffer.cpp ****     if (tail >= head) {
 284              		.loc 1 74 5 is_stmt 1
 285              		.loc 1 74 9 is_stmt 0
 286 01ec 83A74401 		lw	a5,20(s1)
 287              		.loc 1 74 17
 288 01f0 03A90401 		lw	s2,16(s1)
 289              		.loc 1 74 5
 290 01f4 63CE2703 		blt	a5,s2,.L8
  75:test/buffer.cpp ****         ret = tail - head;
 291              		.loc 1 75 9 is_stmt 1
 292              		.loc 1 75 13 is_stmt 0
 293 01f8 3B892741 		subw	s2,a5,s2
 294              	.LVL28:
 295              	.L9:
  76:test/buffer.cpp ****     } else {
  77:test/buffer.cpp ****         ret = cap - head + tail;
  78:test/buffer.cpp ****     }
  79:test/buffer.cpp **** 
  80:test/buffer.cpp ****     sem_signal(mutexTail);
 296              		.loc 1 80 5 is_stmt 1
 297              		.loc 1 80 15 is_stmt 0
 298 01fc 03B50403 		ld	a0,48(s1)
 299 0200 97000000 		call	_Z10sem_signalP3sem@plt
 299      E7800000 
 300              	.LVL29:
  81:test/buffer.cpp ****     sem_signal(mutexHead);
 301              		.loc 1 81 5 is_stmt 1
 302              		.loc 1 81 15 is_stmt 0
 303 0208 03B58402 		ld	a0,40(s1)
 304 020c 97000000 		call	_Z10sem_signalP3sem@plt
 304      E7800000 
 305              	.LVL30:
  82:test/buffer.cpp **** 
  83:test/buffer.cpp ****     return ret;
 306              		.loc 1 83 5 is_stmt 1
GAS LISTING /tmp/ccppPwQZ.s 			page 8


  84:test/buffer.cpp **** }
 307              		.loc 1 84 1 is_stmt 0
 308 0214 13050900 		mv	a0,s2
 309 0218 83308101 		ld	ra,24(sp)
 310              		.cfi_remember_state
 311              		.cfi_restore 1
 312 021c 03340101 		ld	s0,16(sp)
 313              		.cfi_restore 8
 314              		.cfi_def_cfa 2, 32
 315 0220 83348100 		ld	s1,8(sp)
 316              		.cfi_restore 9
 317              	.LVL31:
 318 0224 03390100 		ld	s2,0(sp)
 319              		.cfi_restore 18
 320              	.LVL32:
 321 0228 13010102 		addi	sp,sp,32
 322              		.cfi_def_cfa_offset 0
 323 022c 67800000 		jr	ra
 324              	.LVL33:
 325              	.L8:
 326              		.cfi_restore_state
  77:test/buffer.cpp ****     }
 327              		.loc 1 77 9 is_stmt 1
  77:test/buffer.cpp ****     }
 328              		.loc 1 77 15 is_stmt 0
 329 0230 03A70400 		lw	a4,0(s1)
  77:test/buffer.cpp ****     }
 330              		.loc 1 77 19
 331 0234 3B092741 		subw	s2,a4,s2
  77:test/buffer.cpp ****     }
 332              		.loc 1 77 13
 333 0238 3B09F900 		addw	s2,s2,a5
 334 023c 6FF01FFC 		j	.L9
 335              		.cfi_endproc
 336              	.LFE70:
 338              		.section	.rodata.str1.8,"aMS",@progbits,1
 339              		.align	3
 340              	.LC0:
 341 0000 42756666 		.string	"Buffer deleted!\n"
 341      65722064 
 341      656C6574 
 341      6564210A 
 341      00
 342              		.text
 343              		.align	2
 344              		.globl	_ZN6BufferD2Ev
 346              	_ZN6BufferD2Ev:
 347              	.LFB66:
  15:test/buffer.cpp ****     putc('\n');
 348              		.loc 1 15 1 is_stmt 1
 349              		.cfi_startproc
 350              		.cfi_personality 0x9b,DW.ref.__gxx_personality_v0
 351              		.cfi_lsda 0x1b,.LLSDA66
 352              	.LVL34:
 353 0240 130101FE 		addi	sp,sp,-32
 354              		.cfi_def_cfa_offset 32
 355 0244 233C1100 		sd	ra,24(sp)
GAS LISTING /tmp/ccppPwQZ.s 			page 9


 356 0248 23388100 		sd	s0,16(sp)
 357 024c 23349100 		sd	s1,8(sp)
 358              		.cfi_offset 1, -8
 359              		.cfi_offset 8, -16
 360              		.cfi_offset 9, -24
 361 0250 13040102 		addi	s0,sp,32
 362              		.cfi_def_cfa 8, 0
 363 0254 93040500 		mv	s1,a0
 364              	.LBB3:
  16:test/buffer.cpp ****     printString("Buffer deleted!\n");
 365              		.loc 1 16 5
  16:test/buffer.cpp ****     printString("Buffer deleted!\n");
 366              		.loc 1 16 9 is_stmt 0
 367 0258 1305A000 		li	a0,10
 368              	.LVL35:
 369 025c 97000000 		call	_Z4putcc@plt
 369      E7800000 
 370              	.LVL36:
  17:test/buffer.cpp ****     while (getCnt() > 0) {
 371              		.loc 1 17 5 is_stmt 1
  17:test/buffer.cpp ****     while (getCnt() > 0) {
 372              		.loc 1 17 16 is_stmt 0
 373 0264 17050000 		lla	a0,.LC0
 373      13050500 
 374 026c 97000000 		call	_Z11printStringPKc@plt
 374      E7800000 
 375              	.LVL37:
 376              	.L13:
  18:test/buffer.cpp ****         char ch = buffer[head];
 377              		.loc 1 18 5 is_stmt 1
  18:test/buffer.cpp ****         char ch = buffer[head];
 378              		.loc 1 18 21
  18:test/buffer.cpp ****         char ch = buffer[head];
 379              		.loc 1 18 18 is_stmt 0
 380 0274 13850400 		mv	a0,s1
 381 0278 97000000 		call	_ZN6Buffer6getCntEv
 381      E7800000 
 382              	.LVL38:
  18:test/buffer.cpp ****         char ch = buffer[head];
 383              		.loc 1 18 21
 384 0280 635CA002 		blez	a0,.L12
 385              	.LBB4:
  19:test/buffer.cpp ****         putc(ch);
 386              		.loc 1 19 9 is_stmt 1
  19:test/buffer.cpp ****         putc(ch);
 387              		.loc 1 19 19 is_stmt 0
 388 0284 83B78400 		ld	a5,8(s1)
  19:test/buffer.cpp ****         putc(ch);
 389              		.loc 1 19 26
 390 0288 03A70401 		lw	a4,16(s1)
  19:test/buffer.cpp ****         putc(ch);
 391              		.loc 1 19 30
 392 028c 13172700 		slli	a4,a4,2
 393 0290 B387E700 		add	a5,a5,a4
 394              	.LVL39:
  20:test/buffer.cpp ****         head = (head + 1) % cap;
 395              		.loc 1 20 9 is_stmt 1
GAS LISTING /tmp/ccppPwQZ.s 			page 10


  20:test/buffer.cpp ****         head = (head + 1) % cap;
 396              		.loc 1 20 13 is_stmt 0
 397 0294 03C50700 		lbu	a0,0(a5)
 398 0298 97000000 		call	_Z4putcc@plt
 398      E7800000 
 399              	.LVL40:
  21:test/buffer.cpp ****     }
 400              		.loc 1 21 9 is_stmt 1
  21:test/buffer.cpp ****     }
 401              		.loc 1 21 17 is_stmt 0
 402 02a0 83A70401 		lw	a5,16(s1)
  21:test/buffer.cpp ****     }
 403              		.loc 1 21 22
 404 02a4 9B871700 		addiw	a5,a5,1
  21:test/buffer.cpp ****     }
 405              		.loc 1 21 29
 406 02a8 03A70400 		lw	a4,0(s1)
  21:test/buffer.cpp ****     }
 407              		.loc 1 21 27
 408 02ac BBE7E702 		remw	a5,a5,a4
  21:test/buffer.cpp ****     }
 409              		.loc 1 21 14
 410 02b0 23A8F400 		sw	a5,16(s1)
 411              	.LBE4:
  18:test/buffer.cpp ****         char ch = buffer[head];
 412              		.loc 1 18 5
 413 02b4 6FF01FFC 		j	.L13
 414              	.L12:
  23:test/buffer.cpp ****     putc('\n');
 415              		.loc 1 23 5 is_stmt 1
  23:test/buffer.cpp ****     putc('\n');
 416              		.loc 1 23 9 is_stmt 0
 417 02b8 13051002 		li	a0,33
 418 02bc 97000000 		call	_Z4putcc@plt
 418      E7800000 
 419              	.LVL41:
  24:test/buffer.cpp **** 
 420              		.loc 1 24 5 is_stmt 1
  24:test/buffer.cpp **** 
 421              		.loc 1 24 9 is_stmt 0
 422 02c4 1305A000 		li	a0,10
 423 02c8 97000000 		call	_Z4putcc@plt
 423      E7800000 
 424              	.LVL42:
  26:test/buffer.cpp ****     sem_close(itemAvailable);
 425              		.loc 1 26 5 is_stmt 1
  26:test/buffer.cpp ****     sem_close(itemAvailable);
 426              		.loc 1 26 13 is_stmt 0
 427 02d0 03B58400 		ld	a0,8(s1)
 428 02d4 97000000 		call	_Z8mem_freePv@plt
 428      E7800000 
 429              	.LVL43:
  27:test/buffer.cpp ****     sem_close(spaceAvailable);
 430              		.loc 1 27 5 is_stmt 1
  27:test/buffer.cpp ****     sem_close(spaceAvailable);
 431              		.loc 1 27 14 is_stmt 0
 432 02dc 03B50402 		ld	a0,32(s1)
GAS LISTING /tmp/ccppPwQZ.s 			page 11


 433 02e0 97000000 		call	_Z9sem_closeP3sem@plt
 433      E7800000 
 434              	.LVL44:
  28:test/buffer.cpp ****     sem_close(mutexTail);
 435              		.loc 1 28 5 is_stmt 1
  28:test/buffer.cpp ****     sem_close(mutexTail);
 436              		.loc 1 28 14 is_stmt 0
 437 02e8 03B58401 		ld	a0,24(s1)
 438 02ec 97000000 		call	_Z9sem_closeP3sem@plt
 438      E7800000 
 439              	.LVL45:
  29:test/buffer.cpp ****     sem_close(mutexHead);
 440              		.loc 1 29 5 is_stmt 1
  29:test/buffer.cpp ****     sem_close(mutexHead);
 441              		.loc 1 29 14 is_stmt 0
 442 02f4 03B50403 		ld	a0,48(s1)
 443 02f8 97000000 		call	_Z9sem_closeP3sem@plt
 443      E7800000 
 444              	.LVL46:
  30:test/buffer.cpp **** }
 445              		.loc 1 30 5 is_stmt 1
  30:test/buffer.cpp **** }
 446              		.loc 1 30 14 is_stmt 0
 447 0300 03B58402 		ld	a0,40(s1)
 448 0304 97000000 		call	_Z9sem_closeP3sem@plt
 448      E7800000 
 449              	.LVL47:
 450              	.LBE3:
  31:test/buffer.cpp **** 
 451              		.loc 1 31 1
 452 030c 83308101 		ld	ra,24(sp)
 453              		.cfi_restore 1
 454 0310 03340101 		ld	s0,16(sp)
 455              		.cfi_restore 8
 456              		.cfi_def_cfa 2, 32
 457 0314 83348100 		ld	s1,8(sp)
 458              		.cfi_restore 9
 459              	.LVL48:
 460 0318 13010102 		addi	sp,sp,32
 461              		.cfi_def_cfa_offset 0
 462 031c 67800000 		jr	ra
 463              		.cfi_endproc
 464              	.LFE66:
 465              		.globl	__gxx_personality_v0
 466              		.section	.gcc_except_table,"a",@progbits
 467              	.LLSDA66:
 468 0000 FF       		.byte	0xff
 469 0001 FF       		.byte	0xff
 470 0002 03       		.byte	0x3
 471 0003 00       		.byte	0
 472              		.text
 474              		.globl	_ZN6BufferD1Ev
 475              		.set	_ZN6BufferD1Ev,_ZN6BufferD2Ev
 476              		.globl	l
 477              		.bss
 478              		.align	3
 481              	l:
GAS LISTING /tmp/ccppPwQZ.s 			page 12


 482 0000 00000000 		.zero	8
 482      00000000 
 483              		.text
 484              	.Letext0:
 485              		.file 2 "test/../h/../lib/hw.h"
 486              		.file 3 "test/../h/tcb.hpp"
 487              		.file 4 "test/../h/../h/../h/threadList.hpp"
 488              		.file 5 "test/../h/../h/sem.hpp"
 489              		.file 6 "test/../h/sleepingThreadList.hpp"
 490              		.file 7 "test/../h/syscall_c.hpp"
 491              		.file 8 "test/buffer.hpp"
 492              		.file 9 "test/printing.hpp"
 3994              		.align	3
 3997              	DW.ref.__gxx_personality_v0:
 3998 0000 00000000 		.dword	__gxx_personality_v0
 3998      00000000 
 3999              		.ident	"GCC: (Ubuntu 9.4.0-1ubuntu1~20.04) 9.4.0"
 4000              		.section	.note.GNU-stack,"",@progbits
GAS LISTING /tmp/ccppPwQZ.s 			page 13

