GAS LISTING /tmp/ccWduXX8.s 			page 1


   1              		.file	"System_Mode_test.cpp"
   2              		.option pic
   3              		.option norelax
   4              		.text
   5              	.Ltext0:
   6              		.align	2
   8              	_ZL9fibonaccim:
   9              	.LFB62:
  10              		.file 1 "test/System_Mode_test.cpp"
   1:test/System_Mode_test.cpp **** 
   2:test/System_Mode_test.cpp **** #include "../h/syscall_c.hpp" //todo h u hpp
   3:test/System_Mode_test.cpp **** #include "../h/print.hpp" //todo  izbaci
   4:test/System_Mode_test.cpp **** 
   5:test/System_Mode_test.cpp **** #include "printing.hpp"
   6:test/System_Mode_test.cpp **** 
   7:test/System_Mode_test.cpp **** static volatile bool finishedA = false;
   8:test/System_Mode_test.cpp **** static volatile bool finishedB = false;
   9:test/System_Mode_test.cpp **** static volatile bool finishedC = false;
  10:test/System_Mode_test.cpp **** static volatile bool finishedD = false;
  11:test/System_Mode_test.cpp **** 
  12:test/System_Mode_test.cpp **** static uint64 fibonacci(uint64 n) {
  11              		.loc 1 12 35
  12              		.cfi_startproc
  13              	.LVL0:
  14 0000 130101FE 		addi	sp,sp,-32
  15              		.cfi_def_cfa_offset 32
  16 0004 233C1100 		sd	ra,24(sp)
  17 0008 23388100 		sd	s0,16(sp)
  18 000c 23349100 		sd	s1,8(sp)
  19 0010 23302101 		sd	s2,0(sp)
  20              		.cfi_offset 1, -8
  21              		.cfi_offset 8, -16
  22              		.cfi_offset 9, -24
  23              		.cfi_offset 18, -32
  24 0014 13040102 		addi	s0,sp,32
  25              		.cfi_def_cfa 8, 0
  26 0018 93040500 		mv	s1,a0
  13:test/System_Mode_test.cpp ****     if (n == 0 || n == 1) { return n; }
  27              		.loc 1 13 5
  28 001c 93071000 		li	a5,1
  29 0020 63F8A702 		bleu	a0,a5,.L1
  14:test/System_Mode_test.cpp ****     if (n % 10 == 0) { thread_dispatch(); }
  30              		.loc 1 14 5
  31              		.loc 1 14 11 is_stmt 0
  32 0024 9307A000 		li	a5,10
  33 0028 B377F502 		remu	a5,a0,a5
  34              		.loc 1 14 5
  35 002c 638E0702 		beqz	a5,.L6
  36              	.LVL1:
  37              	.L3:
  15:test/System_Mode_test.cpp ****     return fibonacci(n - 1) + fibonacci(n - 2);
  38              		.loc 1 15 5 is_stmt 1
  39              		.loc 1 15 21 is_stmt 0
  40 0030 1385F4FF 		addi	a0,s1,-1
  41 0034 97000000 		call	_ZL9fibonaccim
  41      E7800000 
  42              	.LVL2:
GAS LISTING /tmp/ccWduXX8.s 			page 2


  43 003c 13090500 		mv	s2,a0
  44              		.loc 1 15 40
  45 0040 1385E4FF 		addi	a0,s1,-2
  46 0044 97000000 		call	_ZL9fibonaccim
  46      E7800000 
  47              	.LVL3:
  48              		.loc 1 15 46
  49 004c 3305A900 		add	a0,s2,a0
  50              	.L1:
  16:test/System_Mode_test.cpp **** }
  51              		.loc 1 16 1
  52 0050 83308101 		ld	ra,24(sp)
  53              		.cfi_remember_state
  54              		.cfi_restore 1
  55 0054 03340101 		ld	s0,16(sp)
  56              		.cfi_restore 8
  57              		.cfi_def_cfa 2, 32
  58 0058 83348100 		ld	s1,8(sp)
  59              		.cfi_restore 9
  60              	.LVL4:
  61 005c 03390100 		ld	s2,0(sp)
  62              		.cfi_restore 18
  63 0060 13010102 		addi	sp,sp,32
  64              		.cfi_def_cfa_offset 0
  65 0064 67800000 		jr	ra
  66              	.LVL5:
  67              	.L6:
  68              		.cfi_restore_state
  14:test/System_Mode_test.cpp ****     if (n % 10 == 0) { thread_dispatch(); }
  69              		.loc 1 14 24 is_stmt 1 discriminator 1
  14:test/System_Mode_test.cpp ****     if (n % 10 == 0) { thread_dispatch(); }
  70              		.loc 1 14 39 is_stmt 0 discriminator 1
  71 0068 97000000 		call	_Z15thread_dispatchv@plt
  71      E7800000 
  72              	.LVL6:
  73 0070 6FF01FFC 		j	.L3
  74              		.cfi_endproc
  75              	.LFE62:
  77              		.section	.rodata.str1.8,"aMS",@progbits,1
  78              		.align	3
  79              	.LC0:
  80 0000 443A2069 		.string	"D: i="
  80      3D00
  81 0006 0000     		.align	3
  82              	.LC1:
  83 0008 0A00     		.string	"\n"
  84 000a 00000000 		.align	3
  84      0000
  85              	.LC2:
  86 0010 443A2064 		.string	"D: dispatch\n"
  86      69737061 
  86      7463680A 
  86      00
  87 001d 000000   		.align	3
  88              	.LC3:
  89 0020 443A2066 		.string	"D: fibonaci="
  89      69626F6E 
GAS LISTING /tmp/ccWduXX8.s 			page 3


  89      6163693D 
  89      00
  90 002d 000000   		.align	3
  91              	.LC4:
  92 0030 44206669 		.string	"D finished!\n"
  92      6E697368 
  92      6564210A 
  92      00
  93              		.text
  94              		.align	2
  96              	_ZL11workerBodyDPv:
  97              	.LFB66:
  17:test/System_Mode_test.cpp **** 
  18:test/System_Mode_test.cpp **** static void workerBodyA(void* arg) {
  19:test/System_Mode_test.cpp ****     for (uint64 i = 0; i < 10; i++) {
  20:test/System_Mode_test.cpp ****         printString("A: i="); printInteger(i); printString("\n"); //tODO svude je pisalo printInteg
  21:test/System_Mode_test.cpp ****         for (uint64 j = 0; j < 10000; j++) {
  22:test/System_Mode_test.cpp ****             for (uint64 k = 0; k < 30000; k++) { /* busy wait */ }
  23:test/System_Mode_test.cpp ****             thread_dispatch();
  24:test/System_Mode_test.cpp ****         }
  25:test/System_Mode_test.cpp ****     }
  26:test/System_Mode_test.cpp ****     printString("A finished!\n");
  27:test/System_Mode_test.cpp ****     finishedA = true;
  28:test/System_Mode_test.cpp **** }
  29:test/System_Mode_test.cpp **** 
  30:test/System_Mode_test.cpp **** static void workerBodyB(void* arg) {
  31:test/System_Mode_test.cpp ****     for (uint64 i = 0; i < 16; i++) {
  32:test/System_Mode_test.cpp ****         printString("B: i="); printInteger(i); printString("\n");
  33:test/System_Mode_test.cpp **** //        for (uint64 j = 0; j < 10000; j++) {
  34:test/System_Mode_test.cpp **** //            for (uint64 k = 0; k < 30000; k++) { /* busy wait */ }
  35:test/System_Mode_test.cpp ****             thread_dispatch();
  36:test/System_Mode_test.cpp **** //        }
  37:test/System_Mode_test.cpp **** //        if (i == 10) {
  38:test/System_Mode_test.cpp ****             asm volatile("csrr t6, sepc");
  39:test/System_Mode_test.cpp **** //        }
  40:test/System_Mode_test.cpp ****     }
  41:test/System_Mode_test.cpp ****     printString("B finished!\n");
  42:test/System_Mode_test.cpp ****     finishedB = true;
  43:test/System_Mode_test.cpp ****     thread_dispatch();
  44:test/System_Mode_test.cpp **** }
  45:test/System_Mode_test.cpp **** 
  46:test/System_Mode_test.cpp **** static void workerBodyC(void* arg) {
  47:test/System_Mode_test.cpp ****     uint8 i = 0;
  48:test/System_Mode_test.cpp ****     for (; i < 3; i++) {
  49:test/System_Mode_test.cpp ****         printString("C: i="); printInteger(i); printString("\n");
  50:test/System_Mode_test.cpp ****     }
  51:test/System_Mode_test.cpp **** 
  52:test/System_Mode_test.cpp ****     printString("C: dispatch\n");
  53:test/System_Mode_test.cpp ****     __asm__ ("li t1, 7");
  54:test/System_Mode_test.cpp ****     thread_dispatch();
  55:test/System_Mode_test.cpp **** 
  56:test/System_Mode_test.cpp ****     uint64 t1 = 0;
  57:test/System_Mode_test.cpp ****     __asm__ ("mv %[t1], t1" : [t1] "=r"(t1));
  58:test/System_Mode_test.cpp **** 
  59:test/System_Mode_test.cpp ****     printString("C: t1="); printInteger(t1); printString("\n");
  60:test/System_Mode_test.cpp **** 
  61:test/System_Mode_test.cpp ****     uint64 result = fibonacci(12);
GAS LISTING /tmp/ccWduXX8.s 			page 4


  62:test/System_Mode_test.cpp ****     printString("C: fibonaci="); printInteger(result); printString("\n");
  63:test/System_Mode_test.cpp **** 
  64:test/System_Mode_test.cpp ****     for (; i < 6; i++) {
  65:test/System_Mode_test.cpp ****         printString("C: i="); printInteger(i); printString("\n");
  66:test/System_Mode_test.cpp ****     }
  67:test/System_Mode_test.cpp **** 
  68:test/System_Mode_test.cpp ****     printString("A finished!\n");
  69:test/System_Mode_test.cpp ****     finishedC = true;
  70:test/System_Mode_test.cpp ****     thread_dispatch();
  71:test/System_Mode_test.cpp **** }
  72:test/System_Mode_test.cpp **** 
  73:test/System_Mode_test.cpp **** static void workerBodyD(void* arg) {
  98              		.loc 1 73 36 is_stmt 1
  99              		.cfi_startproc
 100              	.LVL7:
 101 0074 130101FE 		addi	sp,sp,-32
 102              		.cfi_def_cfa_offset 32
 103 0078 233C1100 		sd	ra,24(sp)
 104 007c 23388100 		sd	s0,16(sp)
 105 0080 23349100 		sd	s1,8(sp)
 106 0084 23302101 		sd	s2,0(sp)
 107              		.cfi_offset 1, -8
 108              		.cfi_offset 8, -16
 109              		.cfi_offset 9, -24
 110              		.cfi_offset 18, -32
 111 0088 13040102 		addi	s0,sp,32
 112              		.cfi_def_cfa 8, 0
  74:test/System_Mode_test.cpp ****     uint8 i = 10;
 113              		.loc 1 74 5
 114              	.LVL8:
 115              		.loc 1 74 11 is_stmt 0
 116 008c 9304A000 		li	s1,10
 117 0090 6F008003 		j	.L9
 118              	.LVL9:
 119              	.L13:
  75:test/System_Mode_test.cpp ****     for (; i < 13; i++) {
  76:test/System_Mode_test.cpp ****         printString("D: i="); printInteger(i); printString("\n");
 120              		.loc 1 76 9 is_stmt 1 discriminator 1
 121              		.loc 1 76 20 is_stmt 0 discriminator 1
 122 0094 17050000 		lla	a0,.LC0
 122      13050500 
 123 009c 97000000 		call	_Z11printStringPKc@plt
 123      E7800000 
 124              	.LVL10:
 125              		.loc 1 76 31 is_stmt 1 discriminator 1
 126              		.loc 1 76 43 is_stmt 0 discriminator 1
 127 00a4 13850400 		mv	a0,s1
 128 00a8 97000000 		call	_Z12printIntegerm@plt
 128      E7800000 
 129              	.LVL11:
 130              		.loc 1 76 48 is_stmt 1 discriminator 1
 131              		.loc 1 76 59 is_stmt 0 discriminator 1
 132 00b0 17050000 		lla	a0,.LC1
 132      13050500 
 133 00b8 97000000 		call	_Z11printStringPKc@plt
 133      E7800000 
 134              	.LVL12:
GAS LISTING /tmp/ccWduXX8.s 			page 5


  75:test/System_Mode_test.cpp ****     for (; i < 13; i++) {
 135              		.loc 1 75 5 is_stmt 1 discriminator 1
 136 00c0 9B841400 		addiw	s1,s1,1
 137              	.LVL13:
 138 00c4 93F4F40F 		andi	s1,s1,0xff
 139              	.LVL14:
 140              	.L9:
  75:test/System_Mode_test.cpp ****     for (; i < 13; i++) {
 141              		.loc 1 75 5 discriminator 2
  75:test/System_Mode_test.cpp ****     for (; i < 13; i++) {
 142              		.loc 1 75 14 discriminator 2
 143 00c8 9307C000 		li	a5,12
 144 00cc E3F497FC 		bleu	s1,a5,.L13
  77:test/System_Mode_test.cpp ****     }
  78:test/System_Mode_test.cpp **** 
  79:test/System_Mode_test.cpp ****     printString("D: dispatch\n");
 145              		.loc 1 79 5
 146              		.loc 1 79 16 is_stmt 0
 147 00d0 17050000 		lla	a0,.LC2
 147      13050500 
 148 00d8 97000000 		call	_Z11printStringPKc@plt
 148      E7800000 
 149              	.LVL15:
  80:test/System_Mode_test.cpp ****     __asm__ ("li t1, 5");
 150              		.loc 1 80 5 is_stmt 1
 151              		.loc 1 80 25 is_stmt 0
 152              	#APP
 153              	# 80 "test/System_Mode_test.cpp" 1
  81              	    thread_dispatch();
 154              		li t1, 5
 155              	# 0 "" 2
 156              		.loc 1 81 5 is_stmt 1
 157              		.loc 1 81 20 is_stmt 0
 158              	#NO_APP
 159 00e4 97000000 		call	_Z15thread_dispatchv@plt
 159      E7800000 
 160              	.LVL16:
  82:test/System_Mode_test.cpp **** 
  83:test/System_Mode_test.cpp ****     uint64 result = fibonacci(16);
 161              		.loc 1 83 5 is_stmt 1
 162              		.loc 1 83 30 is_stmt 0
 163 00ec 13050001 		li	a0,16
 164 00f0 97000000 		call	_ZL9fibonaccim
 164      E7800000 
 165              	.LVL17:
 166 00f8 13090500 		mv	s2,a0
 167              	.LVL18:
  84:test/System_Mode_test.cpp ****     printString("D: fibonaci="); printInteger(result); printString("\n");
 168              		.loc 1 84 5 is_stmt 1
 169              		.loc 1 84 16 is_stmt 0
 170 00fc 17050000 		lla	a0,.LC3
 170      13050500 
 171              	.LVL19:
 172 0104 97000000 		call	_Z11printStringPKc@plt
 172      E7800000 
 173              	.LVL20:
 174              		.loc 1 84 34 is_stmt 1
GAS LISTING /tmp/ccWduXX8.s 			page 6


 175              		.loc 1 84 46 is_stmt 0
 176 010c 13050900 		mv	a0,s2
 177 0110 97000000 		call	_Z12printIntegerm@plt
 177      E7800000 
 178              	.LVL21:
 179              		.loc 1 84 56 is_stmt 1
 180              		.loc 1 84 67 is_stmt 0
 181 0118 17050000 		lla	a0,.LC1
 181      13050500 
 182 0120 97000000 		call	_Z11printStringPKc@plt
 182      E7800000 
 183              	.LVL22:
 184 0128 6F008003 		j	.L11
 185              	.L14:
  85:test/System_Mode_test.cpp **** 
  86:test/System_Mode_test.cpp ****     for (; i < 16; i++) {
  87:test/System_Mode_test.cpp ****         printString("D: i="); printInteger(i); printString("\n");
 186              		.loc 1 87 9 is_stmt 1 discriminator 1
 187              		.loc 1 87 20 is_stmt 0 discriminator 1
 188 012c 17050000 		lla	a0,.LC0
 188      13050500 
 189 0134 97000000 		call	_Z11printStringPKc@plt
 189      E7800000 
 190              	.LVL23:
 191              		.loc 1 87 31 is_stmt 1 discriminator 1
 192              		.loc 1 87 43 is_stmt 0 discriminator 1
 193 013c 13850400 		mv	a0,s1
 194 0140 97000000 		call	_Z12printIntegerm@plt
 194      E7800000 
 195              	.LVL24:
 196              		.loc 1 87 48 is_stmt 1 discriminator 1
 197              		.loc 1 87 59 is_stmt 0 discriminator 1
 198 0148 17050000 		lla	a0,.LC1
 198      13050500 
 199 0150 97000000 		call	_Z11printStringPKc@plt
 199      E7800000 
 200              	.LVL25:
  86:test/System_Mode_test.cpp ****         printString("D: i="); printInteger(i); printString("\n");
 201              		.loc 1 86 5 is_stmt 1 discriminator 1
 202 0158 9B841400 		addiw	s1,s1,1
 203              	.LVL26:
 204 015c 93F4F40F 		andi	s1,s1,0xff
 205              	.LVL27:
 206              	.L11:
  86:test/System_Mode_test.cpp ****         printString("D: i="); printInteger(i); printString("\n");
 207              		.loc 1 86 5 discriminator 2
  86:test/System_Mode_test.cpp ****         printString("D: i="); printInteger(i); printString("\n");
 208              		.loc 1 86 14 discriminator 2
 209 0160 9307F000 		li	a5,15
 210 0164 E3F497FC 		bleu	s1,a5,.L14
  88:test/System_Mode_test.cpp ****     }
  89:test/System_Mode_test.cpp **** 
  90:test/System_Mode_test.cpp ****     printString("D finished!\n");
 211              		.loc 1 90 5
 212              		.loc 1 90 16 is_stmt 0
 213 0168 17050000 		lla	a0,.LC4
 213      13050500 
GAS LISTING /tmp/ccWduXX8.s 			page 7


 214 0170 97000000 		call	_Z11printStringPKc@plt
 214      E7800000 
 215              	.LVL28:
  91:test/System_Mode_test.cpp ****     finishedD = true;
 216              		.loc 1 91 5 is_stmt 1
 217              		.loc 1 91 15 is_stmt 0
 218 0178 93071000 		li	a5,1
 219 017c 17070000 		sb	a5,.LANCHOR0,a4
 219      2300F700 
  92:test/System_Mode_test.cpp ****     thread_dispatch();
 220              		.loc 1 92 5 is_stmt 1
 221              		.loc 1 92 20 is_stmt 0
 222 0184 97000000 		call	_Z15thread_dispatchv@plt
 222      E7800000 
 223              	.LVL29:
  93:test/System_Mode_test.cpp **** }
 224              		.loc 1 93 1
 225 018c 83308101 		ld	ra,24(sp)
 226              		.cfi_restore 1
 227 0190 03340101 		ld	s0,16(sp)
 228              		.cfi_restore 8
 229              		.cfi_def_cfa 2, 32
 230 0194 83348100 		ld	s1,8(sp)
 231              		.cfi_restore 9
 232              	.LVL30:
 233 0198 03390100 		ld	s2,0(sp)
 234              		.cfi_restore 18
 235              	.LVL31:
 236 019c 13010102 		addi	sp,sp,32
 237              		.cfi_def_cfa_offset 0
 238 01a0 67800000 		jr	ra
 239              		.cfi_endproc
 240              	.LFE66:
 242              		.section	.rodata.str1.8
 243 003d 000000   		.align	3
 244              	.LC5:
 245 0040 433A2069 		.string	"C: i="
 245      3D00
 246 0046 0000     		.align	3
 247              	.LC6:
 248 0048 433A2064 		.string	"C: dispatch\n"
 248      69737061 
 248      7463680A 
 248      00
 249 0055 000000   		.align	3
 250              	.LC7:
 251 0058 433A2074 		.string	"C: t1="
 251      313D00
 252 005f 00       		.align	3
 253              	.LC8:
 254 0060 433A2066 		.string	"C: fibonaci="
 254      69626F6E 
 254      6163693D 
 254      00
 255 006d 000000   		.align	3
 256              	.LC9:
 257 0070 41206669 		.string	"A finished!\n"
GAS LISTING /tmp/ccWduXX8.s 			page 8


 257      6E697368 
 257      6564210A 
 257      00
 258              		.text
 259              		.align	2
 261              	_ZL11workerBodyCPv:
 262              	.LFB65:
  46:test/System_Mode_test.cpp ****     uint8 i = 0;
 263              		.loc 1 46 36 is_stmt 1
 264              		.cfi_startproc
 265              	.LVL32:
 266 01a4 130101FE 		addi	sp,sp,-32
 267              		.cfi_def_cfa_offset 32
 268 01a8 233C1100 		sd	ra,24(sp)
 269 01ac 23388100 		sd	s0,16(sp)
 270 01b0 23349100 		sd	s1,8(sp)
 271 01b4 23302101 		sd	s2,0(sp)
 272              		.cfi_offset 1, -8
 273              		.cfi_offset 8, -16
 274              		.cfi_offset 9, -24
 275              		.cfi_offset 18, -32
 276 01b8 13040102 		addi	s0,sp,32
 277              		.cfi_def_cfa 8, 0
  47:test/System_Mode_test.cpp ****     for (; i < 3; i++) {
 278              		.loc 1 47 5
 279              	.LVL33:
  47:test/System_Mode_test.cpp ****     for (; i < 3; i++) {
 280              		.loc 1 47 11 is_stmt 0
 281 01bc 93040000 		li	s1,0
 282 01c0 6F008003 		j	.L17
 283              	.LVL34:
 284              	.L21:
  49:test/System_Mode_test.cpp ****     }
 285              		.loc 1 49 9 is_stmt 1 discriminator 1
  49:test/System_Mode_test.cpp ****     }
 286              		.loc 1 49 20 is_stmt 0 discriminator 1
 287 01c4 17050000 		lla	a0,.LC5
 287      13050500 
 288 01cc 97000000 		call	_Z11printStringPKc@plt
 288      E7800000 
 289              	.LVL35:
  49:test/System_Mode_test.cpp ****     }
 290              		.loc 1 49 31 is_stmt 1 discriminator 1
  49:test/System_Mode_test.cpp ****     }
 291              		.loc 1 49 43 is_stmt 0 discriminator 1
 292 01d4 13850400 		mv	a0,s1
 293 01d8 97000000 		call	_Z12printIntegerm@plt
 293      E7800000 
 294              	.LVL36:
  49:test/System_Mode_test.cpp ****     }
 295              		.loc 1 49 48 is_stmt 1 discriminator 1
  49:test/System_Mode_test.cpp ****     }
 296              		.loc 1 49 59 is_stmt 0 discriminator 1
 297 01e0 17050000 		lla	a0,.LC1
 297      13050500 
 298 01e8 97000000 		call	_Z11printStringPKc@plt
 298      E7800000 
GAS LISTING /tmp/ccWduXX8.s 			page 9


 299              	.LVL37:
  48:test/System_Mode_test.cpp ****         printString("C: i="); printInteger(i); printString("\n");
 300              		.loc 1 48 5 is_stmt 1 discriminator 1
 301 01f0 9B841400 		addiw	s1,s1,1
 302              	.LVL38:
 303 01f4 93F4F40F 		andi	s1,s1,0xff
 304              	.LVL39:
 305              	.L17:
  48:test/System_Mode_test.cpp ****         printString("C: i="); printInteger(i); printString("\n");
 306              		.loc 1 48 5 discriminator 2
  48:test/System_Mode_test.cpp ****         printString("C: i="); printInteger(i); printString("\n");
 307              		.loc 1 48 14 discriminator 2
 308 01f8 93072000 		li	a5,2
 309 01fc E3F497FC 		bleu	s1,a5,.L21
  52:test/System_Mode_test.cpp ****     __asm__ ("li t1, 7");
 310              		.loc 1 52 5
  52:test/System_Mode_test.cpp ****     __asm__ ("li t1, 7");
 311              		.loc 1 52 16 is_stmt 0
 312 0200 17050000 		lla	a0,.LC6
 312      13050500 
 313 0208 97000000 		call	_Z11printStringPKc@plt
 313      E7800000 
 314              	.LVL40:
  53:test/System_Mode_test.cpp ****     thread_dispatch();
 315              		.loc 1 53 5 is_stmt 1
  53:test/System_Mode_test.cpp ****     thread_dispatch();
 316              		.loc 1 53 25 is_stmt 0
 317              	#APP
 318              	# 53 "test/System_Mode_test.cpp" 1
  54:test/System_Mode_test.cpp **** 
 319              		li t1, 7
 320              	# 0 "" 2
 321              		.loc 1 54 5 is_stmt 1
  54:test/System_Mode_test.cpp **** 
 322              		.loc 1 54 20 is_stmt 0
 323              	#NO_APP
 324 0214 97000000 		call	_Z15thread_dispatchv@plt
 324      E7800000 
 325              	.LVL41:
  56:test/System_Mode_test.cpp ****     __asm__ ("mv %[t1], t1" : [t1] "=r"(t1));
 326              		.loc 1 56 5 is_stmt 1
  57:test/System_Mode_test.cpp **** 
 327              		.loc 1 57 5
  57:test/System_Mode_test.cpp **** 
 328              		.loc 1 57 45 is_stmt 0
 329              	#APP
 330              	# 57 "test/System_Mode_test.cpp" 1
 331              		mv s2, t1
 332              	# 0 "" 2
 333              	.LVL42:
  59:test/System_Mode_test.cpp **** 
 334              		.loc 1 59 5 is_stmt 1
  59:test/System_Mode_test.cpp **** 
 335              		.loc 1 59 16 is_stmt 0
 336              	#NO_APP
 337 0220 17050000 		lla	a0,.LC7
 337      13050500 
GAS LISTING /tmp/ccWduXX8.s 			page 10


 338 0228 97000000 		call	_Z11printStringPKc@plt
 338      E7800000 
 339              	.LVL43:
  59:test/System_Mode_test.cpp **** 
 340              		.loc 1 59 28 is_stmt 1
  59:test/System_Mode_test.cpp **** 
 341              		.loc 1 59 40 is_stmt 0
 342 0230 13050900 		mv	a0,s2
 343 0234 97000000 		call	_Z12printIntegerm@plt
 343      E7800000 
 344              	.LVL44:
  59:test/System_Mode_test.cpp **** 
 345              		.loc 1 59 46 is_stmt 1
  59:test/System_Mode_test.cpp **** 
 346              		.loc 1 59 57 is_stmt 0
 347 023c 17050000 		lla	a0,.LC1
 347      13050500 
 348 0244 97000000 		call	_Z11printStringPKc@plt
 348      E7800000 
 349              	.LVL45:
  61:test/System_Mode_test.cpp ****     printString("C: fibonaci="); printInteger(result); printString("\n");
 350              		.loc 1 61 5 is_stmt 1
  61:test/System_Mode_test.cpp ****     printString("C: fibonaci="); printInteger(result); printString("\n");
 351              		.loc 1 61 30 is_stmt 0
 352 024c 1305C000 		li	a0,12
 353 0250 97000000 		call	_ZL9fibonaccim
 353      E7800000 
 354              	.LVL46:
 355 0258 13090500 		mv	s2,a0
 356              	.LVL47:
  62:test/System_Mode_test.cpp **** 
 357              		.loc 1 62 5 is_stmt 1
  62:test/System_Mode_test.cpp **** 
 358              		.loc 1 62 16 is_stmt 0
 359 025c 17050000 		lla	a0,.LC8
 359      13050500 
 360              	.LVL48:
 361 0264 97000000 		call	_Z11printStringPKc@plt
 361      E7800000 
 362              	.LVL49:
  62:test/System_Mode_test.cpp **** 
 363              		.loc 1 62 34 is_stmt 1
  62:test/System_Mode_test.cpp **** 
 364              		.loc 1 62 46 is_stmt 0
 365 026c 13050900 		mv	a0,s2
 366 0270 97000000 		call	_Z12printIntegerm@plt
 366      E7800000 
 367              	.LVL50:
  62:test/System_Mode_test.cpp **** 
 368              		.loc 1 62 56 is_stmt 1
  62:test/System_Mode_test.cpp **** 
 369              		.loc 1 62 67 is_stmt 0
 370 0278 17050000 		lla	a0,.LC1
 370      13050500 
 371 0280 97000000 		call	_Z11printStringPKc@plt
 371      E7800000 
 372              	.LVL51:
GAS LISTING /tmp/ccWduXX8.s 			page 11


 373 0288 6F008003 		j	.L19
 374              	.L22:
  65:test/System_Mode_test.cpp ****     }
 375              		.loc 1 65 9 is_stmt 1 discriminator 1
  65:test/System_Mode_test.cpp ****     }
 376              		.loc 1 65 20 is_stmt 0 discriminator 1
 377 028c 17050000 		lla	a0,.LC5
 377      13050500 
 378 0294 97000000 		call	_Z11printStringPKc@plt
 378      E7800000 
 379              	.LVL52:
  65:test/System_Mode_test.cpp ****     }
 380              		.loc 1 65 31 is_stmt 1 discriminator 1
  65:test/System_Mode_test.cpp ****     }
 381              		.loc 1 65 43 is_stmt 0 discriminator 1
 382 029c 13850400 		mv	a0,s1
 383 02a0 97000000 		call	_Z12printIntegerm@plt
 383      E7800000 
 384              	.LVL53:
  65:test/System_Mode_test.cpp ****     }
 385              		.loc 1 65 48 is_stmt 1 discriminator 1
  65:test/System_Mode_test.cpp ****     }
 386              		.loc 1 65 59 is_stmt 0 discriminator 1
 387 02a8 17050000 		lla	a0,.LC1
 387      13050500 
 388 02b0 97000000 		call	_Z11printStringPKc@plt
 388      E7800000 
 389              	.LVL54:
  64:test/System_Mode_test.cpp ****         printString("C: i="); printInteger(i); printString("\n");
 390              		.loc 1 64 5 is_stmt 1 discriminator 1
 391 02b8 9B841400 		addiw	s1,s1,1
 392              	.LVL55:
 393 02bc 93F4F40F 		andi	s1,s1,0xff
 394              	.LVL56:
 395              	.L19:
  64:test/System_Mode_test.cpp ****         printString("C: i="); printInteger(i); printString("\n");
 396              		.loc 1 64 5 discriminator 2
  64:test/System_Mode_test.cpp ****         printString("C: i="); printInteger(i); printString("\n");
 397              		.loc 1 64 14 discriminator 2
 398 02c0 93075000 		li	a5,5
 399 02c4 E3F497FC 		bleu	s1,a5,.L22
  68:test/System_Mode_test.cpp ****     finishedC = true;
 400              		.loc 1 68 5
  68:test/System_Mode_test.cpp ****     finishedC = true;
 401              		.loc 1 68 16 is_stmt 0
 402 02c8 17050000 		lla	a0,.LC9
 402      13050500 
 403 02d0 97000000 		call	_Z11printStringPKc@plt
 403      E7800000 
 404              	.LVL57:
  69:test/System_Mode_test.cpp ****     thread_dispatch();
 405              		.loc 1 69 5 is_stmt 1
  69:test/System_Mode_test.cpp ****     thread_dispatch();
 406              		.loc 1 69 15 is_stmt 0
 407 02d8 93071000 		li	a5,1
 408 02dc 17070000 		sb	a5,.LANCHOR0+1,a4
 408      2300F700 
GAS LISTING /tmp/ccWduXX8.s 			page 12


  70:test/System_Mode_test.cpp **** }
 409              		.loc 1 70 5 is_stmt 1
  70:test/System_Mode_test.cpp **** }
 410              		.loc 1 70 20 is_stmt 0
 411 02e4 97000000 		call	_Z15thread_dispatchv@plt
 411      E7800000 
 412              	.LVL58:
  71:test/System_Mode_test.cpp **** 
 413              		.loc 1 71 1
 414 02ec 83308101 		ld	ra,24(sp)
 415              		.cfi_restore 1
 416 02f0 03340101 		ld	s0,16(sp)
 417              		.cfi_restore 8
 418              		.cfi_def_cfa 2, 32
 419 02f4 83348100 		ld	s1,8(sp)
 420              		.cfi_restore 9
 421              	.LVL59:
 422 02f8 03390100 		ld	s2,0(sp)
 423              		.cfi_restore 18
 424              	.LVL60:
 425 02fc 13010102 		addi	sp,sp,32
 426              		.cfi_def_cfa_offset 0
 427 0300 67800000 		jr	ra
 428              		.cfi_endproc
 429              	.LFE65:
 431              		.section	.rodata.str1.8
 432 007d 000000   		.align	3
 433              	.LC10:
 434 0080 423A2069 		.string	"B: i="
 434      3D00
 435 0086 0000     		.align	3
 436              	.LC11:
 437 0088 42206669 		.string	"B finished!\n"
 437      6E697368 
 437      6564210A 
 437      00
 438              		.text
 439              		.align	2
 441              	_ZL11workerBodyBPv:
 442              	.LFB64:
  30:test/System_Mode_test.cpp ****     for (uint64 i = 0; i < 16; i++) {
 443              		.loc 1 30 36 is_stmt 1
 444              		.cfi_startproc
 445              	.LVL61:
 446 0304 130101FE 		addi	sp,sp,-32
 447              		.cfi_def_cfa_offset 32
 448 0308 233C1100 		sd	ra,24(sp)
 449 030c 23388100 		sd	s0,16(sp)
 450 0310 23349100 		sd	s1,8(sp)
 451              		.cfi_offset 1, -8
 452              		.cfi_offset 8, -16
 453              		.cfi_offset 9, -24
 454 0314 13040102 		addi	s0,sp,32
 455              		.cfi_def_cfa 8, 0
  31:test/System_Mode_test.cpp ****         printString("B: i="); printInteger(i); printString("\n");
 456              		.loc 1 31 5
 457              	.LVL62:
GAS LISTING /tmp/ccWduXX8.s 			page 13


 458              	.LBB2:
  31:test/System_Mode_test.cpp ****         printString("B: i="); printInteger(i); printString("\n");
 459              		.loc 1 31 17 is_stmt 0
 460 0318 93040000 		li	s1,0
 461              	.LVL63:
 462              	.L25:
  31:test/System_Mode_test.cpp ****         printString("B: i="); printInteger(i); printString("\n");
 463              		.loc 1 31 26 is_stmt 1 discriminator 3
 464 031c 9307F000 		li	a5,15
 465 0320 63E29704 		bgtu	s1,a5,.L24
  32:test/System_Mode_test.cpp **** //        for (uint64 j = 0; j < 10000; j++) {
 466              		.loc 1 32 9 discriminator 2
  32:test/System_Mode_test.cpp **** //        for (uint64 j = 0; j < 10000; j++) {
 467              		.loc 1 32 20 is_stmt 0 discriminator 2
 468 0324 17050000 		lla	a0,.LC10
 468      13050500 
 469 032c 97000000 		call	_Z11printStringPKc@plt
 469      E7800000 
 470              	.LVL64:
  32:test/System_Mode_test.cpp **** //        for (uint64 j = 0; j < 10000; j++) {
 471              		.loc 1 32 31 is_stmt 1 discriminator 2
  32:test/System_Mode_test.cpp **** //        for (uint64 j = 0; j < 10000; j++) {
 472              		.loc 1 32 43 is_stmt 0 discriminator 2
 473 0334 13850400 		mv	a0,s1
 474 0338 97000000 		call	_Z12printIntegerm@plt
 474      E7800000 
 475              	.LVL65:
  32:test/System_Mode_test.cpp **** //        for (uint64 j = 0; j < 10000; j++) {
 476              		.loc 1 32 48 is_stmt 1 discriminator 2
  32:test/System_Mode_test.cpp **** //        for (uint64 j = 0; j < 10000; j++) {
 477              		.loc 1 32 59 is_stmt 0 discriminator 2
 478 0340 17050000 		lla	a0,.LC1
 478      13050500 
 479 0348 97000000 		call	_Z11printStringPKc@plt
 479      E7800000 
 480              	.LVL66:
  35:test/System_Mode_test.cpp **** //        }
 481              		.loc 1 35 13 is_stmt 1 discriminator 2
  35:test/System_Mode_test.cpp **** //        }
 482              		.loc 1 35 28 is_stmt 0 discriminator 2
 483 0350 97000000 		call	_Z15thread_dispatchv@plt
 483      E7800000 
 484              	.LVL67:
  38:test/System_Mode_test.cpp **** //        }
 485              		.loc 1 38 13 is_stmt 1 discriminator 2
  38:test/System_Mode_test.cpp **** //        }
 486              		.loc 1 38 42 is_stmt 0 discriminator 2
 487              	#APP
 488              	# 38 "test/System_Mode_test.cpp" 1
  31:test/System_Mode_test.cpp ****         printString("B: i="); printInteger(i); printString("\n");
 489              		csrr t6, sepc
 490              	# 0 "" 2
 491              		.loc 1 31 5 is_stmt 1 discriminator 2
 492              	#NO_APP
 493 035c 93841400 		addi	s1,s1,1
 494              	.LVL68:
 495 0360 6FF0DFFB 		j	.L25
GAS LISTING /tmp/ccWduXX8.s 			page 14


 496              	.L24:
 497              	.LBE2:
  41:test/System_Mode_test.cpp ****     finishedB = true;
 498              		.loc 1 41 5
  41:test/System_Mode_test.cpp ****     finishedB = true;
 499              		.loc 1 41 16 is_stmt 0
 500 0364 17050000 		lla	a0,.LC11
 500      13050500 
 501 036c 97000000 		call	_Z11printStringPKc@plt
 501      E7800000 
 502              	.LVL69:
  42:test/System_Mode_test.cpp ****     thread_dispatch();
 503              		.loc 1 42 5 is_stmt 1
  42:test/System_Mode_test.cpp ****     thread_dispatch();
 504              		.loc 1 42 15 is_stmt 0
 505 0374 93071000 		li	a5,1
 506 0378 17070000 		sb	a5,.LANCHOR0+2,a4
 506      2300F700 
  43:test/System_Mode_test.cpp **** }
 507              		.loc 1 43 5 is_stmt 1
  43:test/System_Mode_test.cpp **** }
 508              		.loc 1 43 20 is_stmt 0
 509 0380 97000000 		call	_Z15thread_dispatchv@plt
 509      E7800000 
 510              	.LVL70:
  44:test/System_Mode_test.cpp **** 
 511              		.loc 1 44 1
 512 0388 83308101 		ld	ra,24(sp)
 513              		.cfi_restore 1
 514 038c 03340101 		ld	s0,16(sp)
 515              		.cfi_restore 8
 516              		.cfi_def_cfa 2, 32
 517 0390 83348100 		ld	s1,8(sp)
 518              		.cfi_restore 9
 519              	.LVL71:
 520 0394 13010102 		addi	sp,sp,32
 521              		.cfi_def_cfa_offset 0
 522 0398 67800000 		jr	ra
 523              		.cfi_endproc
 524              	.LFE64:
 526              		.section	.rodata.str1.8
 527 0095 000000   		.align	3
 528              	.LC12:
 529 0098 413A2069 		.string	"A: i="
 529      3D00
 530              		.text
 531              		.align	2
 533              	_ZL11workerBodyAPv:
 534              	.LFB63:
  18:test/System_Mode_test.cpp ****     for (uint64 i = 0; i < 10; i++) {
 535              		.loc 1 18 36 is_stmt 1
 536              		.cfi_startproc
 537              	.LVL72:
 538 039c 130101FE 		addi	sp,sp,-32
 539              		.cfi_def_cfa_offset 32
 540 03a0 233C1100 		sd	ra,24(sp)
 541 03a4 23388100 		sd	s0,16(sp)
GAS LISTING /tmp/ccWduXX8.s 			page 15


 542 03a8 23349100 		sd	s1,8(sp)
 543 03ac 23302101 		sd	s2,0(sp)
 544              		.cfi_offset 1, -8
 545              		.cfi_offset 8, -16
 546              		.cfi_offset 9, -24
 547              		.cfi_offset 18, -32
 548 03b0 13040102 		addi	s0,sp,32
 549              		.cfi_def_cfa 8, 0
  19:test/System_Mode_test.cpp ****         printString("A: i="); printInteger(i); printString("\n"); //tODO svude je pisalo printInteg
 550              		.loc 1 19 5
 551              	.LVL73:
 552              	.LBB3:
  19:test/System_Mode_test.cpp ****         printString("A: i="); printInteger(i); printString("\n"); //tODO svude je pisalo printInteg
 553              		.loc 1 19 17 is_stmt 0
 554 03b4 13090000 		li	s2,0
 555 03b8 6F008003 		j	.L33
 556              	.LVL74:
 557              	.L30:
 558              	.LBB4:
 559              	.LBB5:
 560              	.LBB6:
  23:test/System_Mode_test.cpp ****         }
 561              		.loc 1 23 13 is_stmt 1 discriminator 2
  23:test/System_Mode_test.cpp ****         }
 562              		.loc 1 23 28 is_stmt 0 discriminator 2
 563 03bc 97000000 		call	_Z15thread_dispatchv@plt
 563      E7800000 
 564              	.LVL75:
 565              	.LBE6:
  21:test/System_Mode_test.cpp ****             for (uint64 k = 0; k < 30000; k++) { /* busy wait */ }
 566              		.loc 1 21 9 is_stmt 1 discriminator 2
 567 03c4 93841400 		addi	s1,s1,1
 568              	.LVL76:
 569              	.L32:
  21:test/System_Mode_test.cpp ****             for (uint64 k = 0; k < 30000; k++) { /* busy wait */ }
 570              		.loc 1 21 30 discriminator 1
 571 03c8 B7270000 		li	a5,8192
 572 03cc 9387F770 		addi	a5,a5,1807
 573 03d0 63EE9700 		bgtu	s1,a5,.L29
 574              	.LBB8:
 575              	.LBB7:
  22:test/System_Mode_test.cpp ****             thread_dispatch();
 576              		.loc 1 22 25 is_stmt 0
 577 03d4 13070000 		li	a4,0
 578              	.L31:
 579              	.LVL77:
  22:test/System_Mode_test.cpp ****             thread_dispatch();
 580              		.loc 1 22 34 is_stmt 1 discriminator 3
 581 03d8 B7770000 		li	a5,28672
 582 03dc 9387F752 		addi	a5,a5,1327
 583 03e0 E3EEE7FC 		bgtu	a4,a5,.L30
  22:test/System_Mode_test.cpp ****             thread_dispatch();
 584              		.loc 1 22 13 discriminator 2
 585 03e4 13071700 		addi	a4,a4,1
 586              	.LVL78:
 587 03e8 6FF01FFF 		j	.L31
 588              	.LVL79:
GAS LISTING /tmp/ccWduXX8.s 			page 16


 589              	.L29:
 590              	.LBE7:
 591              	.LBE8:
 592              	.LBE5:
 593              	.LBE4:
  19:test/System_Mode_test.cpp ****         printString("A: i="); printInteger(i); printString("\n"); //tODO svude je pisalo printInteg
 594              		.loc 1 19 5 discriminator 2
 595 03ec 13091900 		addi	s2,s2,1
 596              	.LVL80:
 597              	.L33:
  19:test/System_Mode_test.cpp ****         printString("A: i="); printInteger(i); printString("\n"); //tODO svude je pisalo printInteg
 598              		.loc 1 19 26 discriminator 1
 599 03f0 93079000 		li	a5,9
 600 03f4 63EC2703 		bgtu	s2,a5,.L28
 601              	.LBB10:
  20:test/System_Mode_test.cpp ****         for (uint64 j = 0; j < 10000; j++) {
 602              		.loc 1 20 9
  20:test/System_Mode_test.cpp ****         for (uint64 j = 0; j < 10000; j++) {
 603              		.loc 1 20 20 is_stmt 0
 604 03f8 17050000 		lla	a0,.LC12
 604      13050500 
 605 0400 97000000 		call	_Z11printStringPKc@plt
 605      E7800000 
 606              	.LVL81:
  20:test/System_Mode_test.cpp ****         for (uint64 j = 0; j < 10000; j++) {
 607              		.loc 1 20 31 is_stmt 1
  20:test/System_Mode_test.cpp ****         for (uint64 j = 0; j < 10000; j++) {
 608              		.loc 1 20 43 is_stmt 0
 609 0408 13050900 		mv	a0,s2
 610 040c 97000000 		call	_Z12printIntegerm@plt
 610      E7800000 
 611              	.LVL82:
  20:test/System_Mode_test.cpp ****         for (uint64 j = 0; j < 10000; j++) {
 612              		.loc 1 20 48 is_stmt 1
  20:test/System_Mode_test.cpp ****         for (uint64 j = 0; j < 10000; j++) {
 613              		.loc 1 20 59 is_stmt 0
 614 0414 17050000 		lla	a0,.LC1
 614      13050500 
 615 041c 97000000 		call	_Z11printStringPKc@plt
 615      E7800000 
 616              	.LVL83:
  21:test/System_Mode_test.cpp ****             for (uint64 k = 0; k < 30000; k++) { /* busy wait */ }
 617              		.loc 1 21 9 is_stmt 1
 618              	.LBB9:
  21:test/System_Mode_test.cpp ****             for (uint64 k = 0; k < 30000; k++) { /* busy wait */ }
 619              		.loc 1 21 21 is_stmt 0
 620 0424 93040000 		li	s1,0
 621 0428 6FF01FFA 		j	.L32
 622              	.LVL84:
 623              	.L28:
 624              	.LBE9:
 625              	.LBE10:
 626              	.LBE3:
  26:test/System_Mode_test.cpp ****     finishedA = true;
 627              		.loc 1 26 5 is_stmt 1
  26:test/System_Mode_test.cpp ****     finishedA = true;
 628              		.loc 1 26 16 is_stmt 0
GAS LISTING /tmp/ccWduXX8.s 			page 17


 629 042c 17050000 		lla	a0,.LC9
 629      13050500 
 630 0434 97000000 		call	_Z11printStringPKc@plt
 630      E7800000 
 631              	.LVL85:
  27:test/System_Mode_test.cpp **** }
 632              		.loc 1 27 5 is_stmt 1
  27:test/System_Mode_test.cpp **** }
 633              		.loc 1 27 15 is_stmt 0
 634 043c 93071000 		li	a5,1
 635 0440 17070000 		sb	a5,.LANCHOR0+3,a4
 635      2300F700 
  28:test/System_Mode_test.cpp **** 
 636              		.loc 1 28 1
 637 0448 83308101 		ld	ra,24(sp)
 638              		.cfi_restore 1
 639 044c 03340101 		ld	s0,16(sp)
 640              		.cfi_restore 8
 641              		.cfi_def_cfa 2, 32
 642 0450 83348100 		ld	s1,8(sp)
 643              		.cfi_restore 9
 644 0454 03390100 		ld	s2,0(sp)
 645              		.cfi_restore 18
 646              	.LVL86:
 647 0458 13010102 		addi	sp,sp,32
 648              		.cfi_def_cfa_offset 0
 649 045c 67800000 		jr	ra
 650              		.cfi_endproc
 651              	.LFE63:
 653              		.section	.rodata.str1.8
 654 009e 0000     		.align	3
 655              	.LC13:
 656 00a0 54687265 		.string	"ThreadA created\n"
 656      61644120 
 656      63726561 
 656      7465640A 
 656      00
 657 00b1 00000000 		.align	3
 657      000000
 658              	.LC14:
 659 00b8 54687265 		.string	"ThreadB created\n"
 659      61644220 
 659      63726561 
 659      7465640A 
 659      00
 660 00c9 00000000 		.align	3
 660      000000
 661              	.LC15:
 662 00d0 54687265 		.string	"ThreadC created\n"
 662      61644320 
 662      63726561 
 662      7465640A 
 662      00
 663 00e1 00000000 		.align	3
 663      000000
 664              	.LC16:
 665 00e8 54687265 		.string	"ThreadD created\n"
GAS LISTING /tmp/ccWduXX8.s 			page 18


 665      61644420 
 665      63726561 
 665      7465640A 
 665      00
 666              		.text
 667              		.align	2
 668              		.globl	_Z16System_Mode_testv
 670              	_Z16System_Mode_testv:
 671              	.LFB67:
  94:test/System_Mode_test.cpp **** 
  95:test/System_Mode_test.cpp **** 
  96:test/System_Mode_test.cpp **** void System_Mode_test() {
 672              		.loc 1 96 25 is_stmt 1
 673              		.cfi_startproc
 674 0460 130101FD 		addi	sp,sp,-48
 675              		.cfi_def_cfa_offset 48
 676 0464 23341102 		sd	ra,40(sp)
 677 0468 23308102 		sd	s0,32(sp)
 678              		.cfi_offset 1, -8
 679              		.cfi_offset 8, -16
 680 046c 13040103 		addi	s0,sp,48
 681              		.cfi_def_cfa 8, 0
  97:test/System_Mode_test.cpp ****     thread_t threads[4];
 682              		.loc 1 97 5
  98:test/System_Mode_test.cpp ****     thread_create(&threads[0], workerBodyA, nullptr);
 683              		.loc 1 98 5
 684              		.loc 1 98 18 is_stmt 0
 685 0470 13060000 		li	a2,0
 686 0474 97050000 		lla	a1,_ZL11workerBodyAPv
 686      93850500 
 687 047c 130504FD 		addi	a0,s0,-48
 688 0480 97000000 		call	_Z13thread_createPP3TCBPFvPvES2_@plt
 688      E7800000 
 689              	.LVL87:
  99:test/System_Mode_test.cpp ****     printString("ThreadA created\n");
 690              		.loc 1 99 5 is_stmt 1
 691              		.loc 1 99 16 is_stmt 0
 692 0488 17050000 		lla	a0,.LC13
 692      13050500 
 693 0490 97000000 		call	_Z11printStringPKc@plt
 693      E7800000 
 694              	.LVL88:
 100:test/System_Mode_test.cpp **** 
 101:test/System_Mode_test.cpp ****     thread_create(&threads[1], workerBodyB, nullptr);
 695              		.loc 1 101 5 is_stmt 1
 696              		.loc 1 101 18 is_stmt 0
 697 0498 13060000 		li	a2,0
 698 049c 97050000 		lla	a1,_ZL11workerBodyBPv
 698      93850500 
 699 04a4 130584FD 		addi	a0,s0,-40
 700 04a8 97000000 		call	_Z13thread_createPP3TCBPFvPvES2_@plt
 700      E7800000 
 701              	.LVL89:
 102:test/System_Mode_test.cpp ****     printString("ThreadB created\n");
 702              		.loc 1 102 5 is_stmt 1
 703              		.loc 1 102 16 is_stmt 0
 704 04b0 17050000 		lla	a0,.LC14
GAS LISTING /tmp/ccWduXX8.s 			page 19


 704      13050500 
 705 04b8 97000000 		call	_Z11printStringPKc@plt
 705      E7800000 
 706              	.LVL90:
 103:test/System_Mode_test.cpp **** 
 104:test/System_Mode_test.cpp ****     thread_create(&threads[2], workerBodyC, nullptr);
 707              		.loc 1 104 5 is_stmt 1
 708              		.loc 1 104 18 is_stmt 0
 709 04c0 13060000 		li	a2,0
 710 04c4 97050000 		lla	a1,_ZL11workerBodyCPv
 710      93850500 
 711 04cc 130504FE 		addi	a0,s0,-32
 712 04d0 97000000 		call	_Z13thread_createPP3TCBPFvPvES2_@plt
 712      E7800000 
 713              	.LVL91:
 105:test/System_Mode_test.cpp ****     printString("ThreadC created\n");
 714              		.loc 1 105 5 is_stmt 1
 715              		.loc 1 105 16 is_stmt 0
 716 04d8 17050000 		lla	a0,.LC15
 716      13050500 
 717 04e0 97000000 		call	_Z11printStringPKc@plt
 717      E7800000 
 718              	.LVL92:
 106:test/System_Mode_test.cpp **** 
 107:test/System_Mode_test.cpp ****     thread_create(&threads[3], workerBodyD, nullptr);
 719              		.loc 1 107 5 is_stmt 1
 720              		.loc 1 107 18 is_stmt 0
 721 04e8 13060000 		li	a2,0
 722 04ec 97050000 		lla	a1,_ZL11workerBodyDPv
 722      93850500 
 723 04f4 130584FE 		addi	a0,s0,-24
 724 04f8 97000000 		call	_Z13thread_createPP3TCBPFvPvES2_@plt
 724      E7800000 
 725              	.LVL93:
 108:test/System_Mode_test.cpp ****     printString("ThreadD created\n");
 726              		.loc 1 108 5 is_stmt 1
 727              		.loc 1 108 16 is_stmt 0
 728 0500 17050000 		lla	a0,.LC16
 728      13050500 
 729 0508 97000000 		call	_Z11printStringPKc@plt
 729      E7800000 
 730              	.LVL94:
 731 0510 6F00C000 		j	.L37
 732              	.L36:
 109:test/System_Mode_test.cpp **** 
 110:test/System_Mode_test.cpp ****     while (!(finishedA && finishedB && finishedC && finishedD)) {
 111:test/System_Mode_test.cpp ****         thread_dispatch();
 733              		.loc 1 111 9 is_stmt 1
 734              		.loc 1 111 24 is_stmt 0
 735 0514 97000000 		call	_Z15thread_dispatchv@plt
 735      E7800000 
 736              	.LVL95:
 737              	.L37:
 110:test/System_Mode_test.cpp ****         thread_dispatch();
 738              		.loc 1 110 5 is_stmt 1
 110:test/System_Mode_test.cpp ****         thread_dispatch();
 739              		.loc 1 110 12
GAS LISTING /tmp/ccWduXX8.s 			page 20


 110:test/System_Mode_test.cpp ****         thread_dispatch();
 740              		.loc 1 110 14 is_stmt 0
 741 051c 97070000 		lbu	a5,.LANCHOR0+3
 741      83C70700 
 110:test/System_Mode_test.cpp ****         thread_dispatch();
 742              		.loc 1 110 12
 743 0524 E38807FE 		beqz	a5,.L36
 110:test/System_Mode_test.cpp ****         thread_dispatch();
 744              		.loc 1 110 27 discriminator 2
 745 0528 97070000 		lbu	a5,.LANCHOR0+2
 745      83C70700 
 110:test/System_Mode_test.cpp ****         thread_dispatch();
 746              		.loc 1 110 24 discriminator 2
 747 0530 E38207FE 		beqz	a5,.L36
 110:test/System_Mode_test.cpp ****         thread_dispatch();
 748              		.loc 1 110 40 discriminator 4
 749 0534 97070000 		lbu	a5,.LANCHOR0+1
 749      83C70700 
 110:test/System_Mode_test.cpp ****         thread_dispatch();
 750              		.loc 1 110 37 discriminator 4
 751 053c E38C07FC 		beqz	a5,.L36
 110:test/System_Mode_test.cpp ****         thread_dispatch();
 752              		.loc 1 110 53 discriminator 6
 753 0540 97070000 		lbu	a5,.LANCHOR0
 753      83C70700 
 110:test/System_Mode_test.cpp ****         thread_dispatch();
 754              		.loc 1 110 12 discriminator 6
 755 0548 E38607FC 		beqz	a5,.L36
 112:test/System_Mode_test.cpp ****     }
 113:test/System_Mode_test.cpp **** 
 114:test/System_Mode_test.cpp **** }
 756              		.loc 1 114 1
 757 054c 83308102 		ld	ra,40(sp)
 758              		.cfi_restore 1
 759 0550 03340102 		ld	s0,32(sp)
 760              		.cfi_restore 8
 761              		.cfi_def_cfa 2, 48
 762 0554 13010103 		addi	sp,sp,48
 763              		.cfi_def_cfa_offset 0
 764 0558 67800000 		jr	ra
 765              		.cfi_endproc
 766              	.LFE67:
 768              		.bss
 769              		.set	.LANCHOR0,. + 0
 772              	_ZL9finishedD:
 773 0000 00       		.zero	1
 776              	_ZL9finishedC:
 777 0001 00       		.zero	1
 780              	_ZL9finishedB:
 781 0002 00       		.zero	1
 784              	_ZL9finishedA:
 785 0003 00       		.zero	1
 786              		.text
 787              	.Letext0:
 788              		.file 2 "test/../h/../lib/hw.h"
 789              		.file 3 "test/../h/tcb.hpp"
 790              		.file 4 "test/../h/sleepingThreadList.hpp"
GAS LISTING /tmp/ccWduXX8.s 			page 21


 791              		.file 5 "test/../h/syscall_c.hpp"
 792              		.file 6 "test/printing.hpp"
 793              		.file 7 "test/../h/../h/../h/print.hpp"
GAS LISTING /tmp/ccWduXX8.s 			page 22

